

Microchip MPLAB XC8 Assembler V2.10 build 88905656 
                                                                                               Thu Feb 27 12:59:26 2020

Microchip MPLAB XC8 C Compiler v2.10 (Free license) build 20190730164152 Og1 
     1                           	processor	16F887
     2                           	opt	pw 120
     3                           	opt	flic
     4                           	psect	strings,global,class=STRING,delta=2
     5                           	psect	cinit,global,class=CODE,merge=1,delta=2
     6                           	psect	bssBANK0,global,class=BANK0,space=1,delta=1
     7                           	psect	cstackCOMMON,global,class=COMMON,space=1,delta=1
     8                           	psect	cstackBANK0,global,class=BANK0,space=1,delta=1
     9                           	psect	maintext,global,class=CODE,split=1,delta=2
    10                           	psect	text1,local,class=CODE,merge=1,delta=2
    11                           	psect	text2,local,class=CODE,merge=1,delta=2
    12                           	psect	text3,local,class=CODE,merge=1,delta=2
    13                           	psect	text4,local,class=CODE,merge=1,delta=2
    14                           	psect	text5,local,class=CODE,merge=1,delta=2
    15                           	psect	text6,local,class=CODE,merge=1,delta=2
    16                           	psect	text7,local,class=CODE,merge=1,delta=2
    17                           	psect	text8,local,class=CODE,merge=1,delta=2
    18                           	psect	text9,local,class=CODE,merge=1,delta=2
    19                           	psect	text10,local,class=CODE,merge=1,delta=2,group=1
    20                           	psect	text11,local,class=CODE,merge=1,delta=2
    21                           	psect	text12,local,class=CODE,merge=1,delta=2
    22                           	psect	text13,local,class=CODE,merge=1,delta=2
    23                           	psect	text14,local,class=CODE,merge=1,delta=2
    24                           	psect	text15,local,class=CODE,merge=1,delta=2
    25                           	psect	text16,local,class=CODE,merge=1,delta=2,group=1
    26                           	psect	text17,local,class=CODE,merge=1,delta=2,group=1
    27                           	psect	text18,local,class=CODE,merge=1,delta=2,group=1
    28                           	psect	text19,local,class=CODE,merge=1,delta=2,group=1
    29                           	psect	text20,local,class=CODE,merge=1,delta=2,group=1
    30                           	psect	text21,local,class=CODE,merge=1,delta=2,group=1
    31                           	psect	text22,local,class=CODE,merge=1,delta=2,group=1
    32                           	psect	text23,local,class=CODE,merge=1,delta=2,group=1
    33                           	dabs	1,0x7E,2
    34  0000                     
    35                           ; Version 2.10
    36                           ; Generated 31/07/2019 GMT
    37                           ; 
    38                           ; Copyright © 2019, Microchip Technology Inc. and its subsidiaries ("Microchip")
    39                           ; All rights reserved.
    40                           ; 
    41                           ; This software is developed by Microchip Technology Inc. and its subsidiaries ("Microch
      +                          ip").
    42                           ; 
    43                           ; Redistribution and use in source and binary forms, with or without modification, are
    44                           ; permitted provided that the following conditions are met:
    45                           ; 
    46                           ;     1. Redistributions of source code must retain the above copyright notice, this lis
      +                          t of
    47                           ;        conditions and the following disclaimer.
    48                           ; 
    49                           ;     2. Redistributions in binary form must reproduce the above copyright notice, this 
      +                          list
    50                           ;        of conditions and the following disclaimer in the documentation and/or other
    51                           ;        materials provided with the distribution.
    52                           ; 
    53                           ;     3. Microchip's name may not be used to endorse or promote products derived from th
      +                          is
    54                           ;        software without specific prior written permission.
    55                           ; 
    56                           ; THIS SOFTWARE IS PROVIDED BY MICROCHIP "AS IS" AND ANY EXPRESS OR IMPLIED WARRANTIES,
    57                           ; INCLUDING, BUT NOT LIMITED TO, THE IMPLIED WARRANTIES OF MERCHANTABILITY AND FITNESS F
      +                          OR
    58                           ; PURPOSE ARE DISCLAIMED.  IN NO EVENT SHALL MICROCHIP BE LIABLE FOR ANY DIRECT, INDIREC
      +                          T,
    59                           ; INCIDENTAL, SPECIAL, EXEMPLARY, OR CONSEQUENTIAL DAMAGES (INCLUDING BUT NOT LIMITED TO
    60                           ; PROCUREMENT OF SUBSTITUTE GOODS OR SERVICES; LOSS OF USE, DATA OR PROFITS; OR BUSINESS
    61                           ; INTERRUPTION) HOWSOEVER CAUSED AND ON ANY THEORY OF LIABILITY, WHETHER IN CONTRACT, ST
      +                          RICT
    62                           ; LIABILITY, OR TORT (INCLUDING NEGLIGENCE OR OTHERWISE) ARISING IN ANY WAY OUT OF THE U
      +                          SE OF
    63                           ; THIS SOFTWARE, EVEN IF ADVISED OF THE POSSIBILITY OF SUCH DAMAGE.
    64                           ; 
    65                           ; 
    66                           ; Code-generator required, PIC16F887 Definitions
    67                           ; 
    68                           ; SFR Addresses
    69  0000                     	;# 
    70  0001                     	;# 
    71  0002                     	;# 
    72  0003                     	;# 
    73  0004                     	;# 
    74  0005                     	;# 
    75  0006                     	;# 
    76  0007                     	;# 
    77  0008                     	;# 
    78  0009                     	;# 
    79  000A                     	;# 
    80  000B                     	;# 
    81  000C                     	;# 
    82  000D                     	;# 
    83  000E                     	;# 
    84  000E                     	;# 
    85  000F                     	;# 
    86  0010                     	;# 
    87  0011                     	;# 
    88  0012                     	;# 
    89  0013                     	;# 
    90  0014                     	;# 
    91  0015                     	;# 
    92  0015                     	;# 
    93  0016                     	;# 
    94  0017                     	;# 
    95  0018                     	;# 
    96  0019                     	;# 
    97  001A                     	;# 
    98  001B                     	;# 
    99  001B                     	;# 
   100  001C                     	;# 
   101  001D                     	;# 
   102  001E                     	;# 
   103  001F                     	;# 
   104  0081                     	;# 
   105  0085                     	;# 
   106  0086                     	;# 
   107  0087                     	;# 
   108  0088                     	;# 
   109  0089                     	;# 
   110  008C                     	;# 
   111  008D                     	;# 
   112  008E                     	;# 
   113  008F                     	;# 
   114  0090                     	;# 
   115  0091                     	;# 
   116  0092                     	;# 
   117  0093                     	;# 
   118  0093                     	;# 
   119  0093                     	;# 
   120  0094                     	;# 
   121  0095                     	;# 
   122  0096                     	;# 
   123  0097                     	;# 
   124  0098                     	;# 
   125  0099                     	;# 
   126  009A                     	;# 
   127  009B                     	;# 
   128  009C                     	;# 
   129  009D                     	;# 
   130  009E                     	;# 
   131  009F                     	;# 
   132  0105                     	;# 
   133  0107                     	;# 
   134  0108                     	;# 
   135  0109                     	;# 
   136  010C                     	;# 
   137  010C                     	;# 
   138  010D                     	;# 
   139  010E                     	;# 
   140  010F                     	;# 
   141  0185                     	;# 
   142  0187                     	;# 
   143  0188                     	;# 
   144  0189                     	;# 
   145  018C                     	;# 
   146  018D                     	;# 
   147  0000                     	;# 
   148  0001                     	;# 
   149  0002                     	;# 
   150  0003                     	;# 
   151  0004                     	;# 
   152  0005                     	;# 
   153  0006                     	;# 
   154  0007                     	;# 
   155  0008                     	;# 
   156  0009                     	;# 
   157  000A                     	;# 
   158  000B                     	;# 
   159  000C                     	;# 
   160  000D                     	;# 
   161  000E                     	;# 
   162  000E                     	;# 
   163  000F                     	;# 
   164  0010                     	;# 
   165  0011                     	;# 
   166  0012                     	;# 
   167  0013                     	;# 
   168  0014                     	;# 
   169  0015                     	;# 
   170  0015                     	;# 
   171  0016                     	;# 
   172  0017                     	;# 
   173  0018                     	;# 
   174  0019                     	;# 
   175  001A                     	;# 
   176  001B                     	;# 
   177  001B                     	;# 
   178  001C                     	;# 
   179  001D                     	;# 
   180  001E                     	;# 
   181  001F                     	;# 
   182  0081                     	;# 
   183  0085                     	;# 
   184  0086                     	;# 
   185  0087                     	;# 
   186  0088                     	;# 
   187  0089                     	;# 
   188  008C                     	;# 
   189  008D                     	;# 
   190  008E                     	;# 
   191  008F                     	;# 
   192  0090                     	;# 
   193  0091                     	;# 
   194  0092                     	;# 
   195  0093                     	;# 
   196  0093                     	;# 
   197  0093                     	;# 
   198  0094                     	;# 
   199  0095                     	;# 
   200  0096                     	;# 
   201  0097                     	;# 
   202  0098                     	;# 
   203  0099                     	;# 
   204  009A                     	;# 
   205  009B                     	;# 
   206  009C                     	;# 
   207  009D                     	;# 
   208  009E                     	;# 
   209  009F                     	;# 
   210  0105                     	;# 
   211  0107                     	;# 
   212  0108                     	;# 
   213  0109                     	;# 
   214  010C                     	;# 
   215  010C                     	;# 
   216  010D                     	;# 
   217  010E                     	;# 
   218  010F                     	;# 
   219  0185                     	;# 
   220  0187                     	;# 
   221  0188                     	;# 
   222  0189                     	;# 
   223  018C                     	;# 
   224  018D                     	;# 
   225  0000                     	;# 
   226  0001                     	;# 
   227  0002                     	;# 
   228  0003                     	;# 
   229  0004                     	;# 
   230  0005                     	;# 
   231  0006                     	;# 
   232  0007                     	;# 
   233  0008                     	;# 
   234  0009                     	;# 
   235  000A                     	;# 
   236  000B                     	;# 
   237  000C                     	;# 
   238  000D                     	;# 
   239  000E                     	;# 
   240  000E                     	;# 
   241  000F                     	;# 
   242  0010                     	;# 
   243  0011                     	;# 
   244  0012                     	;# 
   245  0013                     	;# 
   246  0014                     	;# 
   247  0015                     	;# 
   248  0015                     	;# 
   249  0016                     	;# 
   250  0017                     	;# 
   251  0018                     	;# 
   252  0019                     	;# 
   253  001A                     	;# 
   254  001B                     	;# 
   255  001B                     	;# 
   256  001C                     	;# 
   257  001D                     	;# 
   258  001E                     	;# 
   259  001F                     	;# 
   260  0081                     	;# 
   261  0085                     	;# 
   262  0086                     	;# 
   263  0087                     	;# 
   264  0088                     	;# 
   265  0089                     	;# 
   266  008C                     	;# 
   267  008D                     	;# 
   268  008E                     	;# 
   269  008F                     	;# 
   270  0090                     	;# 
   271  0091                     	;# 
   272  0092                     	;# 
   273  0093                     	;# 
   274  0093                     	;# 
   275  0093                     	;# 
   276  0094                     	;# 
   277  0095                     	;# 
   278  0096                     	;# 
   279  0097                     	;# 
   280  0098                     	;# 
   281  0099                     	;# 
   282  009A                     	;# 
   283  009B                     	;# 
   284  009C                     	;# 
   285  009D                     	;# 
   286  009E                     	;# 
   287  009F                     	;# 
   288  0105                     	;# 
   289  0107                     	;# 
   290  0108                     	;# 
   291  0109                     	;# 
   292  010C                     	;# 
   293  010C                     	;# 
   294  010D                     	;# 
   295  010E                     	;# 
   296  010F                     	;# 
   297  0185                     	;# 
   298  0187                     	;# 
   299  0188                     	;# 
   300  0189                     	;# 
   301  018C                     	;# 
   302  018D                     	;# 
   303  0000                     	;# 
   304  0001                     	;# 
   305  0002                     	;# 
   306  0003                     	;# 
   307  0004                     	;# 
   308  0005                     	;# 
   309  0006                     	;# 
   310  0007                     	;# 
   311  0008                     	;# 
   312  0009                     	;# 
   313  000A                     	;# 
   314  000B                     	;# 
   315  000C                     	;# 
   316  000D                     	;# 
   317  000E                     	;# 
   318  000E                     	;# 
   319  000F                     	;# 
   320  0010                     	;# 
   321  0011                     	;# 
   322  0012                     	;# 
   323  0013                     	;# 
   324  0014                     	;# 
   325  0015                     	;# 
   326  0015                     	;# 
   327  0016                     	;# 
   328  0017                     	;# 
   329  0018                     	;# 
   330  0019                     	;# 
   331  001A                     	;# 
   332  001B                     	;# 
   333  001B                     	;# 
   334  001C                     	;# 
   335  001D                     	;# 
   336  001E                     	;# 
   337  001F                     	;# 
   338  0081                     	;# 
   339  0085                     	;# 
   340  0086                     	;# 
   341  0087                     	;# 
   342  0088                     	;# 
   343  0089                     	;# 
   344  008C                     	;# 
   345  008D                     	;# 
   346  008E                     	;# 
   347  008F                     	;# 
   348  0090                     	;# 
   349  0091                     	;# 
   350  0092                     	;# 
   351  0093                     	;# 
   352  0093                     	;# 
   353  0093                     	;# 
   354  0094                     	;# 
   355  0095                     	;# 
   356  0096                     	;# 
   357  0097                     	;# 
   358  0098                     	;# 
   359  0099                     	;# 
   360  009A                     	;# 
   361  009B                     	;# 
   362  009C                     	;# 
   363  009D                     	;# 
   364  009E                     	;# 
   365  009F                     	;# 
   366  0105                     	;# 
   367  0107                     	;# 
   368  0108                     	;# 
   369  0109                     	;# 
   370  010C                     	;# 
   371  010C                     	;# 
   372  010D                     	;# 
   373  010E                     	;# 
   374  010F                     	;# 
   375  0185                     	;# 
   376  0187                     	;# 
   377  0188                     	;# 
   378  0189                     	;# 
   379  018C                     	;# 
   380  018D                     	;# 
   381  000C                     _PIR1bits	set	12
   382  000B                     _INTCONbits	set	11
   383  0013                     _SSPBUF	set	19
   384  0014                     _SSPCON	set	20
   385  0009                     _PORTEbits	set	9
   386  0005                     _PORTA	set	5
   387  008C                     _PIE1bits	set	140
   388  0091                     _SSPCON2bits	set	145
   389  0087                     _TRISCbits	set	135
   390  0094                     _SSPSTAT	set	148
   391  0093                     _SSPADD	set	147
   392  0091                     _SSPCON2	set	145
   393  0089                     _TRISE	set	137
   394  0085                     _TRISA	set	133
   395  0189                     _ANSELH	set	393
   396  0188                     _ANSEL	set	392
   397                           
   398                           	psect	strings
   399  0800                     __pstrings:	
   400  0800                     stringtab:	
   401  0800                     __stringtab:	
   402  0800                     stringcode:	
   403                           ;	String table - string pointers are 1 byte each
   404                           
   405  0800                     stringdir:	
   406  0800  3008               	movlw	high stringdir
   407  0801  008A               	movwf	10
   408  0802  0804               	movf	4,w
   409  0803  0A84               	incf	4,f
   410  0804  0782               	addwf	2,f
   411  0805                     __stringbase:	
   412  0805  3400               	retlw	0
   413  0806                     __end_of__stringtab:	
   414  0806                     STR_1:	
   415  0806  3453               	retlw	83	;'S'
   416  0807  3431               	retlw	49	;'1'
   417  0808  343A               	retlw	58	;':'
   418  0809  3400               	retlw	0
   419  080A                     STR_2:	
   420  080A  3453               	retlw	83	;'S'
   421  080B  3432               	retlw	50	;'2'
   422  080C  343A               	retlw	58	;':'
   423  080D  3400               	retlw	0
   424  080E                     STR_3:	
   425  080E  3453               	retlw	83	;'S'
   426  080F  3433               	retlw	51	;'3'
   427  0810  343A               	retlw	58	;':'
   428  0811  3400               	retlw	0
   429  0812                     STR_4:	
   430  0812  342E               	retlw	46	;'.'
   431  0813  3400               	retlw	0
   432                           
   433                           ; #config settings
   434  0000                     
   435                           	psect	cinit
   436  07F0                     start_initialization:	
   437  07F0                     __initialization:	
   438                           
   439                           ; Clear objects allocated to BANK0
   440  07F0  1283               	bcf	3,5	;RP0=0, select bank0
   441  07F1  1303               	bcf	3,6	;RP1=0, select bank0
   442  07F2  01DE               	clrf	__pbssBANK0& (0+127)
   443  07F3  01DF               	clrf	(__pbssBANK0+1)& (0+127)
   444  07F4  01E0               	clrf	(__pbssBANK0+2)& (0+127)
   445  07F5  01E1               	clrf	(__pbssBANK0+3)& (0+127)
   446  07F6  01E2               	clrf	(__pbssBANK0+4)& (0+127)
   447  07F7  01E3               	clrf	(__pbssBANK0+5)& (0+127)
   448  07F8  01E4               	clrf	(__pbssBANK0+6)& (0+127)
   449  07F9  01E5               	clrf	(__pbssBANK0+7)& (0+127)
   450  07FA  01E6               	clrf	(__pbssBANK0+8)& (0+127)
   451  07FB  01E7               	clrf	(__pbssBANK0+9)& (0+127)
   452  07FC                     end_of_initialization:	
   453                           ;End of C runtime variable initialization code
   454                           
   455  07FC                     __end_of__initialization:	
   456  07FC  0183               	clrf	3
   457  07FD  120A  158A  2DD6   	ljmp	_main	;jump to C main() function
   458                           
   459                           	psect	bssBANK0
   460  005E                     __pbssBANK0:	
   461  005E                     _temp_pot1:	
   462  005E                     	ds	4
   463  0062                     _unidades:	
   464  0062                     	ds	2
   465  0064                     _decenas:	
   466  0064                     	ds	2
   467  0066                     _centenas:	
   468  0066                     	ds	2
   469                           
   470                           	psect	cstackCOMMON
   471  0070                     __pcstackCOMMON:	
   472  0070                     ?_setup:	
   473  0070                     ??_setup:	
   474                           ; 1 bytes @ 0x0
   475                           
   476  0070                     ?_lcd8_init:	
   477                           ; 1 bytes @ 0x0
   478                           
   479  0070                     ?_delay_1ms:	
   480                           ; 1 bytes @ 0x0
   481                           
   482  0070                     ??_delay_1ms:	
   483                           ; 1 bytes @ 0x0
   484                           
   485  0070                     ?_lcd8_dispChar:	
   486                           ; 1 bytes @ 0x0
   487                           
   488  0070                     ?_i2c_masterStart:	
   489                           ; 1 bytes @ 0x0
   490                           
   491  0070                     ??_i2c_masterStart:	
   492                           ; 1 bytes @ 0x0
   493                           
   494  0070                     ?_i2c_masterWrite:	
   495                           ; 1 bytes @ 0x0
   496                           
   497  0070                     ?_i2c_masterStop:	
   498                           ; 1 bytes @ 0x0
   499                           
   500  0070                     ??_i2c_masterStop:	
   501                           ; 1 bytes @ 0x0
   502                           
   503  0070                     ?_lcd8_cmd:	
   504                           ; 1 bytes @ 0x0
   505                           
   506  0070                     ?_main:	
   507                           ; 1 bytes @ 0x0
   508                           
   509  0070                     ?_i2c_masterWait:	
   510                           ; 1 bytes @ 0x0
   511                           
   512  0070                     ??_i2c_masterWait:	
   513                           ; 1 bytes @ 0x0
   514                           
   515  0070                     ?_i2c_masterRead:	
   516                           ; 1 bytes @ 0x0
   517                           
   518  0070                     ?__Umul8_16:	
   519                           ; 2 bytes @ 0x0
   520                           
   521  0070                     ?___wmul:	
   522                           ; 2 bytes @ 0x0
   523                           
   524  0070                     ?___lldiv:	
   525                           ; 2 bytes @ 0x0
   526                           
   527  0070                     ?___fladd:	
   528                           ; 4 bytes @ 0x0
   529                           
   530  0070                     __Umul8_16@multiplicand:	
   531                           ; 4 bytes @ 0x0
   532                           
   533  0070                     delay_1ms@i:	
   534                           ; 1 bytes @ 0x0
   535                           
   536  0070                     i2c_masterWrite@data:	
   537                           ; 2 bytes @ 0x0
   538                           
   539  0070                     i2c_masterRead@a:	
   540                           ; 2 bytes @ 0x0
   541                           
   542  0070                     ___wmul@multiplier:	
   543                           ; 2 bytes @ 0x0
   544                           
   545  0070                     ___lldiv@divisor:	
   546                           ; 2 bytes @ 0x0
   547                           
   548  0070                     ___fladd@b:	
   549                           ; 4 bytes @ 0x0
   550                           
   551                           
   552                           ; 4 bytes @ 0x0
   553  0070                     	ds	2
   554  0072                     ??_i2c_masterWrite:	
   555  0072                     ??_i2c_masterRead:	
   556                           ; 1 bytes @ 0x2
   557                           
   558  0072                     ??_lcd8_cmd:	
   559                           ; 1 bytes @ 0x2
   560                           
   561  0072                     ??__Umul8_16:	
   562                           ; 1 bytes @ 0x2
   563                           
   564  0072                     ?_lcd8_write:	
   565                           ; 1 bytes @ 0x2
   566                           
   567  0072                     lcd8_cmd@cmd:	
   568                           ; 1 bytes @ 0x2
   569                           
   570  0072                     lcd8_write@dat:	
   571                           ; 1 bytes @ 0x2
   572                           
   573  0072                     ___wmul@multiplicand:	
   574                           ; 2 bytes @ 0x2
   575                           
   576                           
   577                           ; 2 bytes @ 0x2
   578  0072                     	ds	1
   579  0073                     ??_lcd8_init:	
   580  0073                     ?_lcd8_setCursor:	
   581                           ; 1 bytes @ 0x3
   582                           
   583  0073                     lcd8_setCursor@columna:	
   584                           ; 1 bytes @ 0x3
   585                           
   586                           
   587                           ; 1 bytes @ 0x3
   588  0073                     	ds	1
   589  0074                     ??_lcd8_setCursor:	
   590  0074                     ??_lcd8_dispChar:	
   591                           ; 1 bytes @ 0x4
   592                           
   593  0074                     ?_lcd8_dispNum:	
   594                           ; 1 bytes @ 0x4
   595                           
   596  0074                     ??_lcd8_write:	
   597                           ; 1 bytes @ 0x4
   598                           
   599  0074                     ??___wmul:	
   600                           ; 1 bytes @ 0x4
   601                           
   602  0074                     lcd8_setCursor@fila:	
   603                           ; 1 bytes @ 0x4
   604                           
   605  0074                     lcd8_dispNum@val_num:	
   606                           ; 1 bytes @ 0x4
   607                           
   608  0074                     i2c_masterRead@temp:	
   609                           ; 2 bytes @ 0x4
   610                           
   611  0074                     ___wmul@product:	
   612                           ; 2 bytes @ 0x4
   613                           
   614  0074                     __Umul8_16@product:	
   615                           ; 2 bytes @ 0x4
   616                           
   617  0074                     ___lldiv@dividend:	
   618                           ; 2 bytes @ 0x4
   619                           
   620  0074                     ___fladd@a:	
   621                           ; 4 bytes @ 0x4
   622                           
   623                           
   624                           ; 4 bytes @ 0x4
   625  0074                     	ds	2
   626  0076                     ??_lcd8_dispNum:	
   627  0076                     ?___xxtofl:	
   628                           ; 1 bytes @ 0x6
   629                           
   630  0076                     lcd8_dispChar@value:	
   631                           ; 4 bytes @ 0x6
   632                           
   633  0076                     __Umul8_16@word_mpld:	
   634                           ; 1 bytes @ 0x6
   635                           
   636  0076                     ___xxtofl@val:	
   637                           ; 2 bytes @ 0x6
   638                           
   639                           
   640                           ; 4 bytes @ 0x6
   641  0076                     	ds	2
   642  0078                     ??___lldiv:	
   643  0078                     ___fladd@signs:	
   644                           ; 1 bytes @ 0x8
   645                           
   646  0078                     __Umul8_16@multiplier:	
   647                           ; 1 bytes @ 0x8
   648                           
   649                           
   650                           ; 1 bytes @ 0x8
   651  0078                     	ds	1
   652  0079                     ??___flmul:	
   653  0079                     ___fladd@aexp:	
   654                           ; 1 bytes @ 0x9
   655                           
   656  0079                     ___lldiv@quotient:	
   657                           ; 1 bytes @ 0x9
   658                           
   659                           
   660                           ; 4 bytes @ 0x9
   661  0079                     	ds	1
   662  007A                     ??___xxtofl:	
   663  007A                     ___fladd@bexp:	
   664                           ; 1 bytes @ 0xA
   665                           
   666                           
   667                           ; 1 bytes @ 0xA
   668  007A                     	ds	1
   669  007B                     ___fladd@grs:	
   670                           
   671                           ; 1 bytes @ 0xB
   672  007B                     	ds	2
   673  007D                     ___lldiv@counter:	
   674                           
   675                           ; 1 bytes @ 0xD
   676  007D                     	ds	1
   677  007E                     ??___flsub:	
   678                           
   679                           	psect	cstackBANK0
   680  0020                     __pcstackBANK0:	
   681                           ; 1 bytes @ 0xE
   682                           
   683  0020                     ?_i2c_master_init:	
   684  0020                     ??___fladd:	
   685                           ; 1 bytes @ 0x0
   686                           
   687  0020                     ?___flmul:	
   688                           ; 1 bytes @ 0x0
   689                           
   690  0020                     ___xxtofl@sign:	
   691                           ; 4 bytes @ 0x0
   692                           
   693  0020                     i2c_master_init@c:	
   694                           ; 1 bytes @ 0x0
   695                           
   696  0020                     ___flmul@b:	
   697                           ; 4 bytes @ 0x0
   698                           
   699                           
   700                           ; 4 bytes @ 0x0
   701  0020                     	ds	1
   702  0021                     ___xxtofl@exp:	
   703                           
   704                           ; 1 bytes @ 0x1
   705  0021                     	ds	1
   706  0022                     ___xxtofl@arg:	
   707                           
   708                           ; 4 bytes @ 0x2
   709  0022                     	ds	2
   710  0024                     ??_i2c_master_init:	
   711  0024                     ___flmul@a:	
   712                           ; 1 bytes @ 0x4
   713                           
   714                           
   715                           ; 4 bytes @ 0x4
   716  0024                     	ds	4
   717  0028                     ?___flsub:	
   718  0028                     ___flmul@sign:	
   719                           ; 4 bytes @ 0x8
   720                           
   721  0028                     ___flsub@a:	
   722                           ; 1 bytes @ 0x8
   723                           
   724                           
   725                           ; 4 bytes @ 0x8
   726  0028                     	ds	1
   727  0029                     ___flmul@grs:	
   728                           
   729                           ; 4 bytes @ 0x9
   730  0029                     	ds	3
   731  002C                     ___flsub@b:	
   732                           
   733                           ; 4 bytes @ 0xC
   734  002C                     	ds	1
   735  002D                     ___flmul@aexp:	
   736                           
   737                           ; 1 bytes @ 0xD
   738  002D                     	ds	1
   739  002E                     ___flmul@bexp:	
   740                           
   741                           ; 1 bytes @ 0xE
   742  002E                     	ds	1
   743  002F                     ___flmul@prod:	
   744                           
   745                           ; 4 bytes @ 0xF
   746  002F                     	ds	4
   747  0033                     ___flmul@temp:	
   748                           
   749                           ; 2 bytes @ 0x13
   750  0033                     	ds	2
   751  0035                     ?___fldiv:	
   752  0035                     ___fldiv@a:	
   753                           ; 4 bytes @ 0x15
   754                           
   755                           
   756                           ; 4 bytes @ 0x15
   757  0035                     	ds	4
   758  0039                     ___fldiv@b:	
   759                           
   760                           ; 4 bytes @ 0x19
   761  0039                     	ds	4
   762  003D                     ??___fldiv:	
   763                           
   764                           ; 1 bytes @ 0x1D
   765  003D                     	ds	5
   766  0042                     ___fldiv@rem:	
   767                           
   768                           ; 4 bytes @ 0x22
   769  0042                     	ds	4
   770  0046                     ___fldiv@sign:	
   771                           
   772                           ; 1 bytes @ 0x26
   773  0046                     	ds	1
   774  0047                     ___fldiv@new_exp:	
   775                           
   776                           ; 2 bytes @ 0x27
   777  0047                     	ds	2
   778  0049                     ___fldiv@grs:	
   779                           
   780                           ; 4 bytes @ 0x29
   781  0049                     	ds	4
   782  004D                     ___fldiv@bexp:	
   783                           
   784                           ; 1 bytes @ 0x2D
   785  004D                     	ds	1
   786  004E                     ___fldiv@aexp:	
   787                           
   788                           ; 1 bytes @ 0x2E
   789  004E                     	ds	1
   790  004F                     ?___fltol:	
   791  004F                     ___fltol@f1:	
   792                           ; 4 bytes @ 0x2F
   793                           
   794                           
   795                           ; 4 bytes @ 0x2F
   796  004F                     	ds	4
   797  0053                     ??___fltol:	
   798                           
   799                           ; 1 bytes @ 0x33
   800  0053                     	ds	5
   801  0058                     ___fltol@sign1:	
   802                           
   803                           ; 1 bytes @ 0x38
   804  0058                     	ds	1
   805  0059                     ___fltol@exp1:	
   806                           
   807                           ; 1 bytes @ 0x39
   808  0059                     	ds	1
   809  005A                     ??_main:	
   810                           
   811                           ; 1 bytes @ 0x3A
   812  005A                     	ds	4
   813                           
   814                           	psect	maintext
   815  0DD6                     __pmaintext:	
   816 ;;
   817 ;;Main: autosize = 0, tempsize = 4, incstack = 0, save=0
   818 ;;
   819 ;; *************** function _main *****************
   820 ;; Defined at:
   821 ;;		line 42 in file "i2c_master.c"
   822 ;; Parameters:    Size  Location     Type
   823 ;;		None
   824 ;; Auto vars:     Size  Location     Type
   825 ;;		None
   826 ;; Return value:  Size  Location     Type
   827 ;;                  1    wreg      void 
   828 ;; Registers used:
   829 ;;		wreg, fsr0l, fsr0h, status,2, status,0, btemp+1, pclath, cstack
   830 ;; Tracked objects:
   831 ;;		On entry : B00/0
   832 ;;		On exit  : 0/0
   833 ;;		Unchanged: 0/0
   834 ;; Data sizes:     COMMON   BANK0   BANK1   BANK3   BANK2
   835 ;;      Params:         0       0       0       0       0
   836 ;;      Locals:         0       0       0       0       0
   837 ;;      Temps:          0       4       0       0       0
   838 ;;      Totals:         0       4       0       0       0
   839 ;;Total ram usage:        4 bytes
   840 ;; Hardware stack levels required when called:    3
   841 ;; This function calls:
   842 ;;		___fldiv
   843 ;;		___flmul
   844 ;;		___flsub
   845 ;;		___fltol
   846 ;;		___wmul
   847 ;;		___xxtofl
   848 ;;		_delay_1ms
   849 ;;		_i2c_masterRead
   850 ;;		_i2c_masterStart
   851 ;;		_i2c_masterStop
   852 ;;		_i2c_masterWrite
   853 ;;		_i2c_master_init
   854 ;;		_lcd8_dispChar
   855 ;;		_lcd8_dispNum
   856 ;;		_lcd8_init
   857 ;;		_lcd8_setCursor
   858 ;;		_setup
   859 ;; This function is called by:
   860 ;;		Startup code after reset
   861 ;; This function uses a non-reentrant model
   862 ;;
   863                           
   864                           
   865                           ;psect for function _main
   866  0DD6                     _main:	
   867  0DD6                     l2276:	
   868                           ;incstack = 0
   869                           ; Regs used in _main: [wreg-fsr0h+status,2+status,0+btemp+1+pclath+cstack]
   870                           
   871                           
   872                           ;i2c_master.c: 43:     setup();
   873  0DD6  120A  158A  227D  120A  158A  	fcall	_setup
   874  0DDB                     l2278:	
   875                           
   876                           ;i2c_master.c: 44:     lcd8_init();
   877  0DDB  120A  158A  23E2  120A  158A  	fcall	_lcd8_init
   878  0DE0                     l2280:	
   879                           
   880                           ;i2c_master.c: 45:     i2c_master_init(100000);
   881  0DE0  3000               	movlw	0
   882  0DE1  1283               	bcf	3,5	;RP0=0, select bank0
   883  0DE2  1303               	bcf	3,6	;RP1=0, select bank0
   884  0DE3  00A3               	movwf	i2c_master_init@c+3
   885  0DE4  3001               	movlw	1
   886  0DE5  00A2               	movwf	i2c_master_init@c+2
   887  0DE6  3086               	movlw	134
   888  0DE7  00A1               	movwf	i2c_master_init@c+1
   889  0DE8  30A0               	movlw	160
   890  0DE9  00A0               	movwf	i2c_master_init@c
   891  0DEA  120A  158A  23AA  120A  158A  	fcall	_i2c_master_init
   892  0DEF                     l43:	
   893                           ;i2c_master.c: 46:     while(1){
   894                           
   895                           
   896                           ;i2c_master.c: 48:         lcd8_setCursor(1,1);
   897  0DEF  01F3               	clrf	lcd8_setCursor@columna
   898  0DF0  0AF3               	incf	lcd8_setCursor@columna,f
   899  0DF1  3001               	movlw	1
   900  0DF2  120A  158A  22C3  120A  158A  	fcall	_lcd8_setCursor
   901                           
   902                           ;i2c_master.c: 49:         delay_1ms();
   903  0DF7  120A  118A  2004  120A  158A  	fcall	_delay_1ms
   904  0DFC                     l2282:	
   905                           
   906                           ;i2c_master.c: 50:         lcd8_dispChar("S1:");
   907  0DFC  3001               	movlw	(low ((STR_1-__stringbase)| (0+32768)))& (0+255)
   908  0DFD  120A  158A  2328  120A  158A  	fcall	_lcd8_dispChar
   909  0E02                     l2284:	
   910                           
   911                           ;i2c_master.c: 51:         delay_1ms();
   912  0E02  120A  118A  2004  120A  158A  	fcall	_delay_1ms
   913  0E07                     l2286:	
   914                           
   915                           ;i2c_master.c: 52:         lcd8_setCursor(1,6);
   916  0E07  3006               	movlw	6
   917  0E08  1283               	bcf	3,5	;RP0=0, select bank0
   918  0E09  1303               	bcf	3,6	;RP1=0, select bank0
   919  0E0A  00DA               	movwf	??_main
   920  0E0B  085A               	movf	??_main,w
   921  0E0C  00F3               	movwf	lcd8_setCursor@columna
   922  0E0D  3001               	movlw	1
   923  0E0E  120A  158A  22C3  120A  158A  	fcall	_lcd8_setCursor
   924  0E13                     l2288:	
   925                           
   926                           ;i2c_master.c: 53:         delay_1ms();
   927  0E13  120A  118A  2004  120A  158A  	fcall	_delay_1ms
   928                           
   929                           ;i2c_master.c: 54:         lcd8_dispChar("S2:");
   930  0E18  3005               	movlw	(low ((STR_2-__stringbase)| (0+32768)))& (0+255)
   931  0E19  120A  158A  2328  120A  158A  	fcall	_lcd8_dispChar
   932  0E1E                     l2290:	
   933                           
   934                           ;i2c_master.c: 55:         delay_1ms();
   935  0E1E  120A  118A  2004  120A  158A  	fcall	_delay_1ms
   936  0E23                     l2292:	
   937                           
   938                           ;i2c_master.c: 56:         lcd8_setCursor(1,11);
   939  0E23  300B               	movlw	11
   940  0E24  1283               	bcf	3,5	;RP0=0, select bank0
   941  0E25  1303               	bcf	3,6	;RP1=0, select bank0
   942  0E26  00DA               	movwf	??_main
   943  0E27  085A               	movf	??_main,w
   944  0E28  00F3               	movwf	lcd8_setCursor@columna
   945  0E29  3001               	movlw	1
   946  0E2A  120A  158A  22C3  120A  158A  	fcall	_lcd8_setCursor
   947  0E2F                     l2294:	
   948                           
   949                           ;i2c_master.c: 57:         delay_1ms();
   950  0E2F  120A  118A  2004  120A  158A  	fcall	_delay_1ms
   951  0E34                     l2296:	
   952                           
   953                           ;i2c_master.c: 58:         lcd8_dispChar("S3:");
   954  0E34  3009               	movlw	(low ((STR_3-__stringbase)| (0+32768)))& (0+255)
   955  0E35  120A  158A  2328  120A  158A  	fcall	_lcd8_dispChar
   956                           
   957                           ;i2c_master.c: 59:         delay_1ms();
   958  0E3A  120A  118A  2004  120A  158A  	fcall	_delay_1ms
   959  0E3F                     l2298:	
   960                           
   961                           ;i2c_master.c: 61:         i2c_masterStart();
   962  0E3F  120A  158A  2261  120A  158A  	fcall	_i2c_masterStart
   963  0E44                     l2300:	
   964                           
   965                           ;i2c_master.c: 62:         i2c_masterWrite(0x11);
   966  0E44  3011               	movlw	17
   967  0E45  00F0               	movwf	i2c_masterWrite@data
   968  0E46  3000               	movlw	0
   969  0E47  00F1               	movwf	i2c_masterWrite@data+1
   970  0E48  120A  158A  2273  120A  158A  	fcall	_i2c_masterWrite
   971  0E4D                     l2302:	
   972                           
   973                           ;i2c_master.c: 63:         temp_pot1 = i2c_masterRead(1);
   974  0E4D  3001               	movlw	1
   975  0E4E  00F0               	movwf	i2c_masterRead@a
   976  0E4F  3000               	movlw	0
   977  0E50  00F1               	movwf	i2c_masterRead@a+1
   978  0E51  120A  158A  2374  120A  158A  	fcall	_i2c_masterRead
   979  0E56  0870               	movf	?_i2c_masterRead,w
   980  0E57  1283               	bcf	3,5	;RP0=0, select bank0
   981  0E58  1303               	bcf	3,6	;RP1=0, select bank0
   982  0E59  00DA               	movwf	??_main
   983  0E5A  0871               	movf	?_i2c_masterRead+1,w
   984  0E5B  00DB               	movwf	??_main+1
   985  0E5C  01DC               	clrf	??_main+2
   986  0E5D  01DD               	clrf	??_main+3
   987  0E5E  085D               	movf	??_main+3,w
   988  0E5F  00F9               	movwf	___xxtofl@val+3
   989  0E60  085C               	movf	??_main+2,w
   990  0E61  00F8               	movwf	___xxtofl@val+2
   991  0E62  085B               	movf	??_main+1,w
   992  0E63  00F7               	movwf	___xxtofl@val+1
   993  0E64  085A               	movf	??_main,w
   994  0E65  00F6               	movwf	___xxtofl@val
   995  0E66  3000               	movlw	0
   996  0E67  120A  158A  251A  120A  158A  	fcall	___xxtofl
   997  0E6C  0879               	movf	?___xxtofl+3,w
   998  0E6D  1283               	bcf	3,5	;RP0=0, select bank0
   999  0E6E  1303               	bcf	3,6	;RP1=0, select bank0
  1000  0E6F  00E1               	movwf	_temp_pot1+3
  1001  0E70  0878               	movf	?___xxtofl+2,w
  1002  0E71  00E0               	movwf	_temp_pot1+2
  1003  0E72  0877               	movf	?___xxtofl+1,w
  1004  0E73  00DF               	movwf	_temp_pot1+1
  1005  0E74  0876               	movf	?___xxtofl,w
  1006  0E75  00DE               	movwf	_temp_pot1
  1007  0E76                     l2304:	
  1008                           
  1009                           ;i2c_master.c: 64:         i2c_masterStop();
  1010  0E76  120A  158A  226A  120A  158A  	fcall	_i2c_masterStop
  1011                           
  1012                           ;i2c_master.c: 65:         temp_pot1 = (temp_pot1*5.0)/255.0;
  1013  0E7B  3043               	movlw	67
  1014  0E7C  1283               	bcf	3,5	;RP0=0, select bank0
  1015  0E7D  1303               	bcf	3,6	;RP1=0, select bank0
  1016  0E7E  00B8               	movwf	___fldiv@a+3
  1017  0E7F  307F               	movlw	127
  1018  0E80  00B7               	movwf	___fldiv@a+2
  1019  0E81  3000               	movlw	0
  1020  0E82  00B6               	movwf	___fldiv@a+1
  1021  0E83  3000               	movlw	0
  1022  0E84  00B5               	movwf	___fldiv@a
  1023  0E85  3040               	movlw	64
  1024  0E86  00A3               	movwf	___flmul@b+3
  1025  0E87  30A0               	movlw	160
  1026  0E88  00A2               	movwf	___flmul@b+2
  1027  0E89  3000               	movlw	0
  1028  0E8A  00A1               	movwf	___flmul@b+1
  1029  0E8B  3000               	movlw	0
  1030  0E8C  00A0               	movwf	___flmul@b
  1031  0E8D  0861               	movf	_temp_pot1+3,w
  1032  0E8E  00A7               	movwf	___flmul@a+3
  1033  0E8F  0860               	movf	_temp_pot1+2,w
  1034  0E90  00A6               	movwf	___flmul@a+2
  1035  0E91  085F               	movf	_temp_pot1+1,w
  1036  0E92  00A5               	movwf	___flmul@a+1
  1037  0E93  085E               	movf	_temp_pot1,w
  1038  0E94  00A4               	movwf	___flmul@a
  1039  0E95  120A  118A  248F  120A  158A  	fcall	___flmul
  1040  0E9A  1283               	bcf	3,5	;RP0=0, select bank0
  1041  0E9B  1303               	bcf	3,6	;RP1=0, select bank0
  1042  0E9C  0823               	movf	?___flmul+3,w
  1043  0E9D  00BC               	movwf	___fldiv@b+3
  1044  0E9E  0822               	movf	?___flmul+2,w
  1045  0E9F  00BB               	movwf	___fldiv@b+2
  1046  0EA0  0821               	movf	?___flmul+1,w
  1047  0EA1  00BA               	movwf	___fldiv@b+1
  1048  0EA2  0820               	movf	?___flmul,w
  1049  0EA3  00B9               	movwf	___fldiv@b
  1050  0EA4  120A  118A  201A  120A  158A  	fcall	___fldiv
  1051  0EA9  1283               	bcf	3,5	;RP0=0, select bank0
  1052  0EAA  1303               	bcf	3,6	;RP1=0, select bank0
  1053  0EAB  0838               	movf	?___fldiv+3,w
  1054  0EAC  00E1               	movwf	_temp_pot1+3
  1055  0EAD  0837               	movf	?___fldiv+2,w
  1056  0EAE  00E0               	movwf	_temp_pot1+2
  1057  0EAF  0836               	movf	?___fldiv+1,w
  1058  0EB0  00DF               	movwf	_temp_pot1+1
  1059  0EB1  0835               	movf	?___fldiv,w
  1060  0EB2  00DE               	movwf	_temp_pot1
  1061                           
  1062                           ;i2c_master.c: 66:         temp_pot1 = temp_pot1*100;
  1063  0EB3  3042               	movlw	66
  1064  0EB4  00A3               	movwf	___flmul@b+3
  1065  0EB5  30C8               	movlw	200
  1066  0EB6  00A2               	movwf	___flmul@b+2
  1067  0EB7  3000               	movlw	0
  1068  0EB8  00A1               	movwf	___flmul@b+1
  1069  0EB9  3000               	movlw	0
  1070  0EBA  00A0               	movwf	___flmul@b
  1071  0EBB  0861               	movf	_temp_pot1+3,w
  1072  0EBC  00A7               	movwf	___flmul@a+3
  1073  0EBD  0860               	movf	_temp_pot1+2,w
  1074  0EBE  00A6               	movwf	___flmul@a+2
  1075  0EBF  085F               	movf	_temp_pot1+1,w
  1076  0EC0  00A5               	movwf	___flmul@a+1
  1077  0EC1  085E               	movf	_temp_pot1,w
  1078  0EC2  00A4               	movwf	___flmul@a
  1079  0EC3  120A  118A  248F  120A  158A  	fcall	___flmul
  1080  0EC8  1283               	bcf	3,5	;RP0=0, select bank0
  1081  0EC9  1303               	bcf	3,6	;RP1=0, select bank0
  1082  0ECA  0823               	movf	?___flmul+3,w
  1083  0ECB  00E1               	movwf	_temp_pot1+3
  1084  0ECC  0822               	movf	?___flmul+2,w
  1085  0ECD  00E0               	movwf	_temp_pot1+2
  1086  0ECE  0821               	movf	?___flmul+1,w
  1087  0ECF  00DF               	movwf	_temp_pot1+1
  1088  0ED0  0820               	movf	?___flmul,w
  1089  0ED1  00DE               	movwf	_temp_pot1
  1090                           
  1091                           ;i2c_master.c: 67:         centenas = temp_pot1/100;
  1092  0ED2  0861               	movf	_temp_pot1+3,w
  1093  0ED3  00BC               	movwf	___fldiv@b+3
  1094  0ED4  0860               	movf	_temp_pot1+2,w
  1095  0ED5  00BB               	movwf	___fldiv@b+2
  1096  0ED6  085F               	movf	_temp_pot1+1,w
  1097  0ED7  00BA               	movwf	___fldiv@b+1
  1098  0ED8  085E               	movf	_temp_pot1,w
  1099  0ED9  00B9               	movwf	___fldiv@b
  1100  0EDA  3042               	movlw	66
  1101  0EDB  00B8               	movwf	___fldiv@a+3
  1102  0EDC  30C8               	movlw	200
  1103  0EDD  00B7               	movwf	___fldiv@a+2
  1104  0EDE  3000               	movlw	0
  1105  0EDF  00B6               	movwf	___fldiv@a+1
  1106  0EE0  3000               	movlw	0
  1107  0EE1  00B5               	movwf	___fldiv@a
  1108  0EE2  120A  118A  201A  120A  158A  	fcall	___fldiv
  1109  0EE7  1283               	bcf	3,5	;RP0=0, select bank0
  1110  0EE8  1303               	bcf	3,6	;RP1=0, select bank0
  1111  0EE9  0838               	movf	?___fldiv+3,w
  1112  0EEA  00D2               	movwf	___fltol@f1+3
  1113  0EEB  0837               	movf	?___fldiv+2,w
  1114  0EEC  00D1               	movwf	___fltol@f1+2
  1115  0EED  0836               	movf	?___fldiv+1,w
  1116  0EEE  00D0               	movwf	___fltol@f1+1
  1117  0EEF  0835               	movf	?___fldiv,w
  1118  0EF0  00CF               	movwf	___fltol@f1
  1119  0EF1  120A  158A  249E  120A  158A  	fcall	___fltol
  1120  0EF6  1283               	bcf	3,5	;RP0=0, select bank0
  1121  0EF7  1303               	bcf	3,6	;RP1=0, select bank0
  1122  0EF8  0850               	movf	?___fltol+1,w
  1123  0EF9  00E7               	movwf	_centenas+1
  1124  0EFA  084F               	movf	?___fltol,w
  1125  0EFB  00E6               	movwf	_centenas
  1126                           
  1127                           ;i2c_master.c: 68:         temp_pot1 = temp_pot1 - (centenas*100);
  1128  0EFC  3064               	movlw	100
  1129  0EFD  00F2               	movwf	___wmul@multiplicand
  1130  0EFE  3000               	movlw	0
  1131  0EFF  00F3               	movwf	___wmul@multiplicand+1
  1132  0F00  0867               	movf	_centenas+1,w
  1133  0F01  00F1               	movwf	___wmul@multiplier+1
  1134  0F02  0866               	movf	_centenas,w
  1135  0F03  00F0               	movwf	___wmul@multiplier
  1136  0F04  120A  158A  2303  120A  158A  	fcall	___wmul
  1137  0F09  0870               	movf	?___wmul,w
  1138  0F0A  1283               	bcf	3,5	;RP0=0, select bank0
  1139  0F0B  1303               	bcf	3,6	;RP1=0, select bank0
  1140  0F0C  00DA               	movwf	??_main
  1141  0F0D  0871               	movf	?___wmul+1,w
  1142  0F0E  00DB               	movwf	??_main+1
  1143  0F0F  01DC               	clrf	??_main+2
  1144  0F10  01DD               	clrf	??_main+3
  1145  0F11  085D               	movf	??_main+3,w
  1146  0F12  00F9               	movwf	___xxtofl@val+3
  1147  0F13  085C               	movf	??_main+2,w
  1148  0F14  00F8               	movwf	___xxtofl@val+2
  1149  0F15  085B               	movf	??_main+1,w
  1150  0F16  00F7               	movwf	___xxtofl@val+1
  1151  0F17  085A               	movf	??_main,w
  1152  0F18  00F6               	movwf	___xxtofl@val
  1153  0F19  3000               	movlw	0
  1154  0F1A  120A  158A  251A  120A  158A  	fcall	___xxtofl
  1155  0F1F  0879               	movf	?___xxtofl+3,w
  1156  0F20  1283               	bcf	3,5	;RP0=0, select bank0
  1157  0F21  1303               	bcf	3,6	;RP1=0, select bank0
  1158  0F22  00AB               	movwf	___flsub@a+3
  1159  0F23  0878               	movf	?___xxtofl+2,w
  1160  0F24  00AA               	movwf	___flsub@a+2
  1161  0F25  0877               	movf	?___xxtofl+1,w
  1162  0F26  00A9               	movwf	___flsub@a+1
  1163  0F27  0876               	movf	?___xxtofl,w
  1164  0F28  00A8               	movwf	___flsub@a
  1165  0F29  0861               	movf	_temp_pot1+3,w
  1166  0F2A  00AF               	movwf	___flsub@b+3
  1167  0F2B  0860               	movf	_temp_pot1+2,w
  1168  0F2C  00AE               	movwf	___flsub@b+2
  1169  0F2D  085F               	movf	_temp_pot1+1,w
  1170  0F2E  00AD               	movwf	___flsub@b+1
  1171  0F2F  085E               	movf	_temp_pot1,w
  1172  0F30  00AC               	movwf	___flsub@b
  1173  0F31  120A  158A  22DF  120A  158A  	fcall	___flsub
  1174  0F36  1283               	bcf	3,5	;RP0=0, select bank0
  1175  0F37  1303               	bcf	3,6	;RP1=0, select bank0
  1176  0F38  082B               	movf	?___flsub+3,w
  1177  0F39  00E1               	movwf	_temp_pot1+3
  1178  0F3A  082A               	movf	?___flsub+2,w
  1179  0F3B  00E0               	movwf	_temp_pot1+2
  1180  0F3C  0829               	movf	?___flsub+1,w
  1181  0F3D  00DF               	movwf	_temp_pot1+1
  1182  0F3E  0828               	movf	?___flsub,w
  1183  0F3F  00DE               	movwf	_temp_pot1
  1184                           
  1185                           ;i2c_master.c: 69:         decenas = temp_pot1/10;
  1186  0F40  0861               	movf	_temp_pot1+3,w
  1187  0F41  00BC               	movwf	___fldiv@b+3
  1188  0F42  0860               	movf	_temp_pot1+2,w
  1189  0F43  00BB               	movwf	___fldiv@b+2
  1190  0F44  085F               	movf	_temp_pot1+1,w
  1191  0F45  00BA               	movwf	___fldiv@b+1
  1192  0F46  085E               	movf	_temp_pot1,w
  1193  0F47  00B9               	movwf	___fldiv@b
  1194  0F48  3041               	movlw	65
  1195  0F49  00B8               	movwf	___fldiv@a+3
  1196  0F4A  3020               	movlw	32
  1197  0F4B  00B7               	movwf	___fldiv@a+2
  1198  0F4C  3000               	movlw	0
  1199  0F4D  00B6               	movwf	___fldiv@a+1
  1200  0F4E  3000               	movlw	0
  1201  0F4F  00B5               	movwf	___fldiv@a
  1202  0F50  120A  118A  201A  120A  158A  	fcall	___fldiv
  1203  0F55  1283               	bcf	3,5	;RP0=0, select bank0
  1204  0F56  1303               	bcf	3,6	;RP1=0, select bank0
  1205  0F57  0838               	movf	?___fldiv+3,w
  1206  0F58  00D2               	movwf	___fltol@f1+3
  1207  0F59  0837               	movf	?___fldiv+2,w
  1208  0F5A  00D1               	movwf	___fltol@f1+2
  1209  0F5B  0836               	movf	?___fldiv+1,w
  1210  0F5C  00D0               	movwf	___fltol@f1+1
  1211  0F5D  0835               	movf	?___fldiv,w
  1212  0F5E  00CF               	movwf	___fltol@f1
  1213  0F5F  120A  158A  249E  120A  158A  	fcall	___fltol
  1214  0F64  1283               	bcf	3,5	;RP0=0, select bank0
  1215  0F65  1303               	bcf	3,6	;RP1=0, select bank0
  1216  0F66  0850               	movf	?___fltol+1,w
  1217  0F67  00E5               	movwf	_decenas+1
  1218  0F68  084F               	movf	?___fltol,w
  1219  0F69  00E4               	movwf	_decenas
  1220                           
  1221                           ;i2c_master.c: 70:         unidades = temp_pot1 - (decenas*10);
  1222  0F6A  0861               	movf	_temp_pot1+3,w
  1223  0F6B  00AF               	movwf	___flsub@b+3
  1224  0F6C  0860               	movf	_temp_pot1+2,w
  1225  0F6D  00AE               	movwf	___flsub@b+2
  1226  0F6E  085F               	movf	_temp_pot1+1,w
  1227  0F6F  00AD               	movwf	___flsub@b+1
  1228  0F70  085E               	movf	_temp_pot1,w
  1229  0F71  00AC               	movwf	___flsub@b
  1230  0F72  300A               	movlw	10
  1231  0F73  00F2               	movwf	___wmul@multiplicand
  1232  0F74  3000               	movlw	0
  1233  0F75  00F3               	movwf	___wmul@multiplicand+1
  1234  0F76  0865               	movf	_decenas+1,w
  1235  0F77  00F1               	movwf	___wmul@multiplier+1
  1236  0F78  0864               	movf	_decenas,w
  1237  0F79  00F0               	movwf	___wmul@multiplier
  1238  0F7A  120A  158A  2303  120A  158A  	fcall	___wmul
  1239  0F7F  0870               	movf	?___wmul,w
  1240  0F80  1283               	bcf	3,5	;RP0=0, select bank0
  1241  0F81  1303               	bcf	3,6	;RP1=0, select bank0
  1242  0F82  00DA               	movwf	??_main
  1243  0F83  0871               	movf	?___wmul+1,w
  1244  0F84  00DB               	movwf	??_main+1
  1245  0F85  01DC               	clrf	??_main+2
  1246  0F86  01DD               	clrf	??_main+3
  1247  0F87  085D               	movf	??_main+3,w
  1248  0F88  00F9               	movwf	___xxtofl@val+3
  1249  0F89  085C               	movf	??_main+2,w
  1250  0F8A  00F8               	movwf	___xxtofl@val+2
  1251  0F8B  085B               	movf	??_main+1,w
  1252  0F8C  00F7               	movwf	___xxtofl@val+1
  1253  0F8D  085A               	movf	??_main,w
  1254  0F8E  00F6               	movwf	___xxtofl@val
  1255  0F8F  3000               	movlw	0
  1256  0F90  120A  158A  251A  120A  158A  	fcall	___xxtofl
  1257  0F95  0879               	movf	?___xxtofl+3,w
  1258  0F96  1283               	bcf	3,5	;RP0=0, select bank0
  1259  0F97  1303               	bcf	3,6	;RP1=0, select bank0
  1260  0F98  00AB               	movwf	___flsub@a+3
  1261  0F99  0878               	movf	?___xxtofl+2,w
  1262  0F9A  00AA               	movwf	___flsub@a+2
  1263  0F9B  0877               	movf	?___xxtofl+1,w
  1264  0F9C  00A9               	movwf	___flsub@a+1
  1265  0F9D  0876               	movf	?___xxtofl,w
  1266  0F9E  00A8               	movwf	___flsub@a
  1267  0F9F  120A  158A  22DF  120A  158A  	fcall	___flsub
  1268  0FA4  1283               	bcf	3,5	;RP0=0, select bank0
  1269  0FA5  1303               	bcf	3,6	;RP1=0, select bank0
  1270  0FA6  082B               	movf	?___flsub+3,w
  1271  0FA7  00D2               	movwf	___fltol@f1+3
  1272  0FA8  082A               	movf	?___flsub+2,w
  1273  0FA9  00D1               	movwf	___fltol@f1+2
  1274  0FAA  0829               	movf	?___flsub+1,w
  1275  0FAB  00D0               	movwf	___fltol@f1+1
  1276  0FAC  0828               	movf	?___flsub,w
  1277  0FAD  00CF               	movwf	___fltol@f1
  1278  0FAE  120A  158A  249E  120A  158A  	fcall	___fltol
  1279  0FB3  1283               	bcf	3,5	;RP0=0, select bank0
  1280  0FB4  1303               	bcf	3,6	;RP1=0, select bank0
  1281  0FB5  0850               	movf	?___fltol+1,w
  1282  0FB6  00E3               	movwf	_unidades+1
  1283  0FB7  084F               	movf	?___fltol,w
  1284  0FB8  00E2               	movwf	_unidades
  1285                           
  1286                           ;i2c_master.c: 72:         lcd8_setCursor(2,1);
  1287  0FB9  01F3               	clrf	lcd8_setCursor@columna
  1288  0FBA  0AF3               	incf	lcd8_setCursor@columna,f
  1289  0FBB  3002               	movlw	2
  1290  0FBC  120A  158A  22C3  120A  158A  	fcall	_lcd8_setCursor
  1291                           
  1292                           ;i2c_master.c: 73:         delay_1ms();
  1293  0FC1  120A  118A  2004  120A  158A  	fcall	_delay_1ms
  1294                           
  1295                           ;i2c_master.c: 74:         lcd8_dispNum(centenas);
  1296  0FC6  1283               	bcf	3,5	;RP0=0, select bank0
  1297  0FC7  1303               	bcf	3,6	;RP1=0, select bank0
  1298  0FC8  0867               	movf	_centenas+1,w
  1299  0FC9  00F5               	movwf	lcd8_dispNum@val_num+1
  1300  0FCA  0866               	movf	_centenas,w
  1301  0FCB  00F4               	movwf	lcd8_dispNum@val_num
  1302  0FCC  120A  158A  2294  120A  158A  	fcall	_lcd8_dispNum
  1303                           
  1304                           ;i2c_master.c: 75:         delay_1ms();
  1305  0FD1  120A  118A  2004  120A  158A  	fcall	_delay_1ms
  1306  0FD6                     l2306:	
  1307                           
  1308                           ;i2c_master.c: 76:         lcd8_dispChar(".");
  1309  0FD6  300D               	movlw	(low ((STR_4-__stringbase)| (0+32768)))& (0+255)
  1310  0FD7  120A  158A  2328  120A  158A  	fcall	_lcd8_dispChar
  1311  0FDC                     l2308:	
  1312                           
  1313                           ;i2c_master.c: 77:         delay_1ms();
  1314  0FDC  120A  118A  2004  120A  158A  	fcall	_delay_1ms
  1315  0FE1                     l2310:	
  1316                           
  1317                           ;i2c_master.c: 78:         lcd8_dispNum(decenas);
  1318  0FE1  1283               	bcf	3,5	;RP0=0, select bank0
  1319  0FE2  1303               	bcf	3,6	;RP1=0, select bank0
  1320  0FE3  0865               	movf	_decenas+1,w
  1321  0FE4  00F5               	movwf	lcd8_dispNum@val_num+1
  1322  0FE5  0864               	movf	_decenas,w
  1323  0FE6  00F4               	movwf	lcd8_dispNum@val_num
  1324  0FE7  120A  158A  2294  120A  158A  	fcall	_lcd8_dispNum
  1325  0FEC                     l2312:	
  1326                           
  1327                           ;i2c_master.c: 79:         delay_1ms();
  1328  0FEC  120A  118A  2004  120A  158A  	fcall	_delay_1ms
  1329  0FF1                     l2314:	
  1330                           
  1331                           ;i2c_master.c: 80:         lcd8_dispNum(unidades);
  1332  0FF1  1283               	bcf	3,5	;RP0=0, select bank0
  1333  0FF2  1303               	bcf	3,6	;RP1=0, select bank0
  1334  0FF3  0863               	movf	_unidades+1,w
  1335  0FF4  00F5               	movwf	lcd8_dispNum@val_num+1
  1336  0FF5  0862               	movf	_unidades,w
  1337  0FF6  00F4               	movwf	lcd8_dispNum@val_num
  1338  0FF7  120A  158A  2294  120A  158A  	fcall	_lcd8_dispNum
  1339  0FFC  2DEF               	goto	l43
  1340  0FFD  120A  118A  2800   	ljmp	start
  1341  1000                     __end_of_main:	
  1342                           
  1343                           	psect	text1
  1344  0A7D                     __ptext1:	
  1345 ;; *************** function _setup *****************
  1346 ;; Defined at:
  1347 ;;		line 85 in file "i2c_master.c"
  1348 ;; Parameters:    Size  Location     Type
  1349 ;;		None
  1350 ;; Auto vars:     Size  Location     Type
  1351 ;;		None
  1352 ;; Return value:  Size  Location     Type
  1353 ;;                  1    wreg      void 
  1354 ;; Registers used:
  1355 ;;		wreg, status,2
  1356 ;; Tracked objects:
  1357 ;;		On entry : 0/0
  1358 ;;		On exit  : 0/0
  1359 ;;		Unchanged: 0/0
  1360 ;; Data sizes:     COMMON   BANK0   BANK1   BANK3   BANK2
  1361 ;;      Params:         0       0       0       0       0
  1362 ;;      Locals:         0       0       0       0       0
  1363 ;;      Temps:          0       0       0       0       0
  1364 ;;      Totals:         0       0       0       0       0
  1365 ;;Total ram usage:        0 bytes
  1366 ;; Hardware stack levels used:    1
  1367 ;; This function calls:
  1368 ;;		Nothing
  1369 ;; This function is called by:
  1370 ;;		_main
  1371 ;; This function uses a non-reentrant model
  1372 ;;
  1373                           
  1374                           
  1375                           ;psect for function _setup
  1376  0A7D                     _setup:	
  1377  0A7D                     l1802:	
  1378                           ;incstack = 0
  1379                           ; Regs used in _setup: [wreg+status,2]
  1380                           
  1381                           
  1382                           ;i2c_master.c: 86:     TRISA = 0x00;
  1383  0A7D  1683               	bsf	3,5	;RP0=1, select bank1
  1384  0A7E  1303               	bcf	3,6	;RP1=0, select bank1
  1385  0A7F  0185               	clrf	5	;volatile
  1386  0A80                     l1804:	
  1387                           
  1388                           ;i2c_master.c: 87:     TRISE = 0xFF;
  1389  0A80  30FF               	movlw	255
  1390  0A81  0089               	movwf	9	;volatile
  1391  0A82                     l1806:	
  1392                           
  1393                           ;i2c_master.c: 88:     ANSEL = 0x00;
  1394  0A82  1683               	bsf	3,5	;RP0=1, select bank3
  1395  0A83  1703               	bsf	3,6	;RP1=1, select bank3
  1396  0A84  0188               	clrf	8	;volatile
  1397  0A85                     l1808:	
  1398                           
  1399                           ;i2c_master.c: 89:     ANSELH = 0x00;
  1400  0A85  0189               	clrf	9	;volatile
  1401  0A86                     l49:	
  1402  0A86  0008               	return
  1403  0A87                     __end_of_setup:	
  1404                           
  1405                           	psect	text2
  1406  0AC3                     __ptext2:	
  1407 ;; *************** function _lcd8_setCursor *****************
  1408 ;; Defined at:
  1409 ;;		line 62 in file "LCDv1.c"
  1410 ;; Parameters:    Size  Location     Type
  1411 ;;  fila            1    wreg     unsigned char 
  1412 ;;  columna         1    3[COMMON] unsigned char 
  1413 ;; Auto vars:     Size  Location     Type
  1414 ;;  fila            1    4[COMMON] unsigned char 
  1415 ;; Return value:  Size  Location     Type
  1416 ;;                  1    wreg      void 
  1417 ;; Registers used:
  1418 ;;		wreg, status,2, status,0, btemp+1, pclath, cstack
  1419 ;; Tracked objects:
  1420 ;;		On entry : 0/0
  1421 ;;		On exit  : 0/0
  1422 ;;		Unchanged: 0/0
  1423 ;; Data sizes:     COMMON   BANK0   BANK1   BANK3   BANK2
  1424 ;;      Params:         1       0       0       0       0
  1425 ;;      Locals:         1       0       0       0       0
  1426 ;;      Temps:          0       0       0       0       0
  1427 ;;      Totals:         2       0       0       0       0
  1428 ;;Total ram usage:        2 bytes
  1429 ;; Hardware stack levels used:    1
  1430 ;; Hardware stack levels required when called:    2
  1431 ;; This function calls:
  1432 ;;		_lcd8_cmd
  1433 ;; This function is called by:
  1434 ;;		_main
  1435 ;; This function uses a non-reentrant model
  1436 ;;
  1437                           
  1438                           
  1439                           ;psect for function _lcd8_setCursor
  1440  0AC3                     _lcd8_setCursor:	
  1441                           
  1442                           ;incstack = 0
  1443                           ; Regs used in _lcd8_setCursor: [wreg+status,2+status,0+btemp+1+pclath+cstack]
  1444                           ;lcd8_setCursor@fila stored from wreg
  1445  0AC3  00F4               	movwf	lcd8_setCursor@fila
  1446  0AC4                     l1844:	
  1447                           
  1448                           ;LCDv1.c: 63:     if (fila == 1){
  1449  0AC4  0374               	decf	lcd8_setCursor@fila,w
  1450  0AC5  1D03               	btfss	3,2
  1451  0AC6  2AC8               	goto	u2201
  1452  0AC7  2AC9               	goto	u2200
  1453  0AC8                     u2201:	
  1454  0AC8  2AD1               	goto	l1848
  1455  0AC9                     u2200:	
  1456  0AC9                     l1846:	
  1457                           
  1458                           ;LCDv1.c: 64:         lcd8_cmd(0x80 + columna);
  1459  0AC9  0873               	movf	lcd8_setCursor@columna,w
  1460  0ACA  3E80               	addlw	128
  1461  0ACB  120A  158A  22B2  120A  158A  	fcall	_lcd8_cmd
  1462                           
  1463                           ;LCDv1.c: 65:     }
  1464  0AD0  2ADE               	goto	l83
  1465  0AD1                     l1848:	
  1466  0AD1  3002               	movlw	2
  1467  0AD2  0674               	xorwf	lcd8_setCursor@fila,w
  1468  0AD3  1D03               	btfss	3,2
  1469  0AD4  2AD6               	goto	u2211
  1470  0AD5  2AD7               	goto	u2210
  1471  0AD6                     u2211:	
  1472  0AD6  2ADE               	goto	l83
  1473  0AD7                     u2210:	
  1474  0AD7                     l1850:	
  1475                           
  1476                           ;LCDv1.c: 67:         lcd8_cmd(0xC0 + columna);
  1477  0AD7  0873               	movf	lcd8_setCursor@columna,w
  1478  0AD8  3EC0               	addlw	192
  1479  0AD9  120A  158A  22B2  120A  158A  	fcall	_lcd8_cmd
  1480  0ADE                     l83:	
  1481  0ADE  0008               	return
  1482  0ADF                     __end_of_lcd8_setCursor:	
  1483                           
  1484                           	psect	text3
  1485  0BE2                     __ptext3:	
  1486 ;; *************** function _lcd8_init *****************
  1487 ;; Defined at:
  1488 ;;		line 18 in file "LCDv1.c"
  1489 ;; Parameters:    Size  Location     Type
  1490 ;;		None
  1491 ;; Auto vars:     Size  Location     Type
  1492 ;;		None
  1493 ;; Return value:  Size  Location     Type
  1494 ;;                  1    wreg      void 
  1495 ;; Registers used:
  1496 ;;		wreg, status,2, status,0, btemp+1, pclath, cstack
  1497 ;; Tracked objects:
  1498 ;;		On entry : 0/0
  1499 ;;		On exit  : 0/0
  1500 ;;		Unchanged: 0/0
  1501 ;; Data sizes:     COMMON   BANK0   BANK1   BANK3   BANK2
  1502 ;;      Params:         0       0       0       0       0
  1503 ;;      Locals:         0       0       0       0       0
  1504 ;;      Temps:          2       0       0       0       0
  1505 ;;      Totals:         2       0       0       0       0
  1506 ;;Total ram usage:        2 bytes
  1507 ;; Hardware stack levels used:    1
  1508 ;; Hardware stack levels required when called:    2
  1509 ;; This function calls:
  1510 ;;		_lcd8_cmd
  1511 ;; This function is called by:
  1512 ;;		_main
  1513 ;; This function uses a non-reentrant model
  1514 ;;
  1515                           
  1516                           
  1517                           ;psect for function _lcd8_init
  1518  0BE2                     _lcd8_init:	
  1519  0BE2                     l1810:	
  1520                           ;incstack = 0
  1521                           ; Regs used in _lcd8_init: [wreg+status,2+status,0+btemp+1+pclath+cstack]
  1522                           
  1523                           
  1524                           ;LCDv1.c: 19:     _delay((unsigned long)((20)*(4000000/4000.0)));
  1525  0BE2  301A               	movlw	26
  1526  0BE3  00F4               	movwf	??_lcd8_init+1
  1527  0BE4  30F8               	movlw	248
  1528  0BE5  00F3               	movwf	??_lcd8_init
  1529  0BE6                     u3197:	
  1530  0BE6  0BF3               	decfsz	??_lcd8_init,f
  1531  0BE7  2BE6               	goto	u3197
  1532  0BE8  0BF4               	decfsz	??_lcd8_init+1,f
  1533  0BE9  2BE6               	goto	u3197
  1534  0BEA  0000               	nop
  1535  0BEB                     l1812:	
  1536                           
  1537                           ;LCDv1.c: 20:     lcd8_cmd(0x30);
  1538  0BEB  3030               	movlw	48
  1539  0BEC  120A  158A  22B2  120A  158A  	fcall	_lcd8_cmd
  1540  0BF1                     l1814:	
  1541                           
  1542                           ;LCDv1.c: 21:     _delay((unsigned long)((5)*(4000000/4000.0)));
  1543  0BF1  3007               	movlw	7
  1544  0BF2  00F4               	movwf	??_lcd8_init+1
  1545  0BF3  307D               	movlw	125
  1546  0BF4  00F3               	movwf	??_lcd8_init
  1547  0BF5                     u3207:	
  1548  0BF5  0BF3               	decfsz	??_lcd8_init,f
  1549  0BF6  2BF5               	goto	u3207
  1550  0BF7  0BF4               	decfsz	??_lcd8_init+1,f
  1551  0BF8  2BF5               	goto	u3207
  1552                           
  1553                           ;LCDv1.c: 22:     lcd8_cmd(0x30);
  1554  0BF9  3030               	movlw	48
  1555  0BFA  120A  158A  22B2  120A  158A  	fcall	_lcd8_cmd
  1556  0BFF                     l1816:	
  1557                           
  1558                           ;LCDv1.c: 23:     _delay((unsigned long)((1)*(4000000/4000.0)));
  1559  0BFF  30C7               	movlw	199
  1560  0C00  00F3               	movwf	??_lcd8_init
  1561  0C01                     u3217:	
  1562  0C01  2C02               	nop2
  1563  0C02  0BF3               	decfsz	??_lcd8_init,f
  1564  0C03  2C01               	goto	u3217
  1565  0C04  2C05               	nop2
  1566  0C05  2C06               	nop2
  1567  0C06                     l1818:	
  1568                           
  1569                           ;LCDv1.c: 24:     lcd8_cmd(0x30);
  1570  0C06  3030               	movlw	48
  1571  0C07  120A  158A  22B2  120A  158A  	fcall	_lcd8_cmd
  1572                           
  1573                           ;LCDv1.c: 25:     _delay((unsigned long)((1)*(4000000/4000.0)));
  1574  0C0C  30C7               	movlw	199
  1575  0C0D  00F3               	movwf	??_lcd8_init
  1576  0C0E                     u3227:	
  1577  0C0E  2C0F               	nop2
  1578  0C0F  0BF3               	decfsz	??_lcd8_init,f
  1579  0C10  2C0E               	goto	u3227
  1580  0C11  2C12               	nop2
  1581  0C12  2C13               	nop2
  1582  0C13                     l1820:	
  1583                           
  1584                           ;LCDv1.c: 26:     lcd8_cmd(0x38);
  1585  0C13  3038               	movlw	56
  1586  0C14  120A  158A  22B2  120A  158A  	fcall	_lcd8_cmd
  1587  0C19                     l1822:	
  1588                           
  1589                           ;LCDv1.c: 27:     lcd8_cmd(0x10);
  1590  0C19  3010               	movlw	16
  1591  0C1A  120A  158A  22B2  120A  158A  	fcall	_lcd8_cmd
  1592  0C1F                     l1824:	
  1593                           
  1594                           ;LCDv1.c: 28:     lcd8_cmd(0x01);
  1595  0C1F  3001               	movlw	1
  1596  0C20  120A  158A  22B2  120A  158A  	fcall	_lcd8_cmd
  1597  0C25                     l1826:	
  1598                           
  1599                           ;LCDv1.c: 29:     lcd8_cmd(0x06);
  1600  0C25  3006               	movlw	6
  1601  0C26  120A  158A  22B2  120A  158A  	fcall	_lcd8_cmd
  1602  0C2B                     l1828:	
  1603                           
  1604                           ;LCDv1.c: 30:     lcd8_cmd(0x0C);
  1605  0C2B  300C               	movlw	12
  1606  0C2C  120A  158A  22B2  120A  158A  	fcall	_lcd8_cmd
  1607  0C31                     l1830:	
  1608                           
  1609                           ;LCDv1.c: 31:     lcd8_cmd(0x80);
  1610  0C31  3080               	movlw	128
  1611  0C32  120A  158A  22B2  120A  158A  	fcall	_lcd8_cmd
  1612  0C37                     l62:	
  1613  0C37  0008               	return
  1614  0C38                     __end_of_lcd8_init:	
  1615                           
  1616                           	psect	text4
  1617  0AB2                     __ptext4:	
  1618 ;; *************** function _lcd8_cmd *****************
  1619 ;; Defined at:
  1620 ;;		line 34 in file "LCDv1.c"
  1621 ;; Parameters:    Size  Location     Type
  1622 ;;  cmd             1    wreg     unsigned char 
  1623 ;; Auto vars:     Size  Location     Type
  1624 ;;  cmd             1    2[COMMON] unsigned char 
  1625 ;; Return value:  Size  Location     Type
  1626 ;;                  1    wreg      void 
  1627 ;; Registers used:
  1628 ;;		wreg, status,2, status,0, btemp+1, pclath, cstack
  1629 ;; Tracked objects:
  1630 ;;		On entry : 0/0
  1631 ;;		On exit  : 0/0
  1632 ;;		Unchanged: 0/0
  1633 ;; Data sizes:     COMMON   BANK0   BANK1   BANK3   BANK2
  1634 ;;      Params:         0       0       0       0       0
  1635 ;;      Locals:         1       0       0       0       0
  1636 ;;      Temps:          0       0       0       0       0
  1637 ;;      Totals:         1       0       0       0       0
  1638 ;;Total ram usage:        1 bytes
  1639 ;; Hardware stack levels used:    1
  1640 ;; Hardware stack levels required when called:    1
  1641 ;; This function calls:
  1642 ;;		_delay_1ms
  1643 ;; This function is called by:
  1644 ;;		_lcd8_init
  1645 ;;		_lcd8_setCursor
  1646 ;; This function uses a non-reentrant model
  1647 ;;
  1648                           
  1649                           
  1650                           ;psect for function _lcd8_cmd
  1651  0AB2                     _lcd8_cmd:	
  1652                           
  1653                           ;incstack = 0
  1654                           ; Regs used in _lcd8_cmd: [wreg+status,2+status,0+btemp+1+pclath+cstack]
  1655                           ;lcd8_cmd@cmd stored from wreg
  1656  0AB2  00F2               	movwf	lcd8_cmd@cmd
  1657  0AB3                     l1542:	
  1658                           
  1659                           ;LCDv1.c: 35:     PORTA = cmd;
  1660  0AB3  0872               	movf	lcd8_cmd@cmd,w
  1661  0AB4  1283               	bcf	3,5	;RP0=0, select bank0
  1662  0AB5  1303               	bcf	3,6	;RP1=0, select bank0
  1663  0AB6  0085               	movwf	5	;volatile
  1664  0AB7                     l1544:	
  1665                           
  1666                           ;LCDv1.c: 36:     PORTEbits.RE0 = 0;
  1667  0AB7  1009               	bcf	9,0	;volatile
  1668  0AB8                     l1546:	
  1669                           
  1670                           ;LCDv1.c: 37:     PORTEbits.RE1 = 0;
  1671  0AB8  1089               	bcf	9,1	;volatile
  1672  0AB9                     l1548:	
  1673                           
  1674                           ;LCDv1.c: 38:     PORTEbits.RE2 = 1;
  1675  0AB9  1509               	bsf	9,2	;volatile
  1676  0ABA                     l1550:	
  1677                           
  1678                           ;LCDv1.c: 39:     delay_1ms();
  1679  0ABA  120A  118A  2004  120A  158A  	fcall	_delay_1ms
  1680  0ABF                     l1552:	
  1681                           
  1682                           ;LCDv1.c: 40:     PORTEbits.RE2 = 0;
  1683  0ABF  1283               	bcf	3,5	;RP0=0, select bank0
  1684  0AC0  1303               	bcf	3,6	;RP1=0, select bank0
  1685  0AC1  1109               	bcf	9,2	;volatile
  1686  0AC2                     l65:	
  1687  0AC2  0008               	return
  1688  0AC3                     __end_of_lcd8_cmd:	
  1689                           
  1690                           	psect	text5
  1691  0A94                     __ptext5:	
  1692 ;; *************** function _lcd8_dispNum *****************
  1693 ;; Defined at:
  1694 ;;		line 58 in file "LCDv1.c"
  1695 ;; Parameters:    Size  Location     Type
  1696 ;;  val_num         2    4[COMMON] int 
  1697 ;; Auto vars:     Size  Location     Type
  1698 ;;		None
  1699 ;; Return value:  Size  Location     Type
  1700 ;;                  1    wreg      void 
  1701 ;; Registers used:
  1702 ;;		wreg, status,2, status,0, btemp+1, pclath, cstack
  1703 ;; Tracked objects:
  1704 ;;		On entry : 0/0
  1705 ;;		On exit  : 0/0
  1706 ;;		Unchanged: 0/0
  1707 ;; Data sizes:     COMMON   BANK0   BANK1   BANK3   BANK2
  1708 ;;      Params:         2       0       0       0       0
  1709 ;;      Locals:         0       0       0       0       0
  1710 ;;      Temps:          0       0       0       0       0
  1711 ;;      Totals:         2       0       0       0       0
  1712 ;;Total ram usage:        2 bytes
  1713 ;; Hardware stack levels used:    1
  1714 ;; Hardware stack levels required when called:    2
  1715 ;; This function calls:
  1716 ;;		_lcd8_write
  1717 ;; This function is called by:
  1718 ;;		_main
  1719 ;; This function uses a non-reentrant model
  1720 ;;
  1721                           
  1722                           
  1723                           ;psect for function _lcd8_dispNum
  1724  0A94                     _lcd8_dispNum:	
  1725  0A94                     l1892:	
  1726                           ;incstack = 0
  1727                           ; Regs used in _lcd8_dispNum: [wreg+status,2+status,0+btemp+1+pclath+cstack]
  1728                           
  1729                           
  1730                           ;LCDv1.c: 59:     lcd8_write(val_num + 0x30);
  1731  0A94  0874               	movf	lcd8_dispNum@val_num,w
  1732  0A95  3E30               	addlw	48
  1733  0A96  00F2               	movwf	lcd8_write@dat
  1734  0A97  0875               	movf	lcd8_dispNum@val_num+1,w
  1735  0A98  1803               	skipnc
  1736  0A99  3E01               	addlw	1
  1737  0A9A  3E00               	addlw	0
  1738  0A9B  00F3               	movwf	lcd8_write@dat+1
  1739  0A9C  120A  158A  22A2  120A  158A  	fcall	_lcd8_write
  1740  0AA1                     l77:	
  1741  0AA1  0008               	return
  1742  0AA2                     __end_of_lcd8_dispNum:	
  1743                           
  1744                           	psect	text6
  1745  0B28                     __ptext6:	
  1746 ;; *************** function _lcd8_dispChar *****************
  1747 ;; Defined at:
  1748 ;;		line 52 in file "LCDv1.c"
  1749 ;; Parameters:    Size  Location     Type
  1750 ;;  value           1    wreg     PTR unsigned char 
  1751 ;;		 -> STR_4(2), STR_3(4), STR_2(4), STR_1(4), 
  1752 ;; Auto vars:     Size  Location     Type
  1753 ;;  value           1    6[COMMON] PTR unsigned char 
  1754 ;;		 -> STR_4(2), STR_3(4), STR_2(4), STR_1(4), 
  1755 ;; Return value:  Size  Location     Type
  1756 ;;                  1    wreg      void 
  1757 ;; Registers used:
  1758 ;;		wreg, fsr0l, fsr0h, status,2, status,0, btemp+1, pclath, cstack
  1759 ;; Tracked objects:
  1760 ;;		On entry : 0/0
  1761 ;;		On exit  : 0/0
  1762 ;;		Unchanged: 0/0
  1763 ;; Data sizes:     COMMON   BANK0   BANK1   BANK3   BANK2
  1764 ;;      Params:         0       0       0       0       0
  1765 ;;      Locals:         1       0       0       0       0
  1766 ;;      Temps:          2       0       0       0       0
  1767 ;;      Totals:         3       0       0       0       0
  1768 ;;Total ram usage:        3 bytes
  1769 ;; Hardware stack levels used:    1
  1770 ;; Hardware stack levels required when called:    2
  1771 ;; This function calls:
  1772 ;;		_lcd8_write
  1773 ;; This function is called by:
  1774 ;;		_main
  1775 ;; This function uses a non-reentrant model
  1776 ;;
  1777                           
  1778                           
  1779                           ;psect for function _lcd8_dispChar
  1780  0B28                     _lcd8_dispChar:	
  1781                           
  1782                           ;incstack = 0
  1783                           ; Regs used in _lcd8_dispChar: [wreg-fsr0h+status,2+status,0+btemp+1+pclath+cstack]
  1784                           ;lcd8_dispChar@value stored from wreg
  1785  0B28  00F6               	movwf	lcd8_dispChar@value
  1786  0B29                     l1852:	
  1787                           
  1788                           ;LCDv1.c: 53:     while(*value){
  1789  0B29  2B40               	goto	l1858
  1790  0B2A                     l1854:	
  1791                           
  1792                           ;LCDv1.c: 54:         lcd8_write(*value++);
  1793  0B2A  0876               	movf	lcd8_dispChar@value,w
  1794  0B2B  0084               	movwf	4
  1795  0B2C  120A  158A  2000  120A  158A  	fcall	stringdir
  1796  0B31  00F4               	movwf	??_lcd8_dispChar
  1797  0B32  01F5               	clrf	??_lcd8_dispChar+1
  1798  0B33  0874               	movf	??_lcd8_dispChar,w
  1799  0B34  00F2               	movwf	lcd8_write@dat
  1800  0B35  0875               	movf	??_lcd8_dispChar+1,w
  1801  0B36  00F3               	movwf	lcd8_write@dat+1
  1802  0B37  120A  158A  22A2  120A  158A  	fcall	_lcd8_write
  1803  0B3C                     l1856:	
  1804  0B3C  3001               	movlw	1
  1805  0B3D  00F4               	movwf	??_lcd8_dispChar
  1806  0B3E  0874               	movf	??_lcd8_dispChar,w
  1807  0B3F  07F6               	addwf	lcd8_dispChar@value,f
  1808  0B40                     l1858:	
  1809                           
  1810                           ;LCDv1.c: 53:     while(*value){
  1811  0B40  0876               	movf	lcd8_dispChar@value,w
  1812  0B41  0084               	movwf	4
  1813  0B42  120A  158A  2000  120A  158A  	fcall	stringdir
  1814  0B47  3A00               	xorlw	0
  1815  0B48  1D03               	skipz
  1816  0B49  2B4B               	goto	u2221
  1817  0B4A  2B4C               	goto	u2220
  1818  0B4B                     u2221:	
  1819  0B4B  2B2A               	goto	l1854
  1820  0B4C                     u2220:	
  1821  0B4C                     l74:	
  1822  0B4C  0008               	return
  1823  0B4D                     __end_of_lcd8_dispChar:	
  1824                           
  1825                           	psect	text7
  1826  0AA2                     __ptext7:	
  1827 ;; *************** function _lcd8_write *****************
  1828 ;; Defined at:
  1829 ;;		line 43 in file "LCDv1.c"
  1830 ;; Parameters:    Size  Location     Type
  1831 ;;  dat             2    2[COMMON] unsigned int 
  1832 ;; Auto vars:     Size  Location     Type
  1833 ;;		None
  1834 ;; Return value:  Size  Location     Type
  1835 ;;                  1    wreg      void 
  1836 ;; Registers used:
  1837 ;;		wreg, status,2, status,0, btemp+1, pclath, cstack
  1838 ;; Tracked objects:
  1839 ;;		On entry : 0/0
  1840 ;;		On exit  : 0/0
  1841 ;;		Unchanged: 0/0
  1842 ;; Data sizes:     COMMON   BANK0   BANK1   BANK3   BANK2
  1843 ;;      Params:         2       0       0       0       0
  1844 ;;      Locals:         0       0       0       0       0
  1845 ;;      Temps:          0       0       0       0       0
  1846 ;;      Totals:         2       0       0       0       0
  1847 ;;Total ram usage:        2 bytes
  1848 ;; Hardware stack levels used:    1
  1849 ;; Hardware stack levels required when called:    1
  1850 ;; This function calls:
  1851 ;;		_delay_1ms
  1852 ;; This function is called by:
  1853 ;;		_lcd8_dispChar
  1854 ;;		_lcd8_dispNum
  1855 ;; This function uses a non-reentrant model
  1856 ;;
  1857                           
  1858                           
  1859                           ;psect for function _lcd8_write
  1860  0AA2                     _lcd8_write:	
  1861  0AA2                     l1554:	
  1862                           ;incstack = 0
  1863                           ; Regs used in _lcd8_write: [wreg+status,2+status,0+btemp+1+pclath+cstack]
  1864                           
  1865                           
  1866                           ;LCDv1.c: 44:     PORTA = dat;
  1867  0AA2  0872               	movf	lcd8_write@dat,w
  1868  0AA3  1283               	bcf	3,5	;RP0=0, select bank0
  1869  0AA4  1303               	bcf	3,6	;RP1=0, select bank0
  1870  0AA5  0085               	movwf	5	;volatile
  1871  0AA6                     l1556:	
  1872                           
  1873                           ;LCDv1.c: 45:     PORTEbits.RE0 = 1;
  1874  0AA6  1409               	bsf	9,0	;volatile
  1875  0AA7                     l1558:	
  1876                           
  1877                           ;LCDv1.c: 46:     PORTEbits.RE1 = 0;
  1878  0AA7  1089               	bcf	9,1	;volatile
  1879  0AA8                     l1560:	
  1880                           
  1881                           ;LCDv1.c: 47:     PORTEbits.RE2 = 1;
  1882  0AA8  1509               	bsf	9,2	;volatile
  1883  0AA9                     l1562:	
  1884                           
  1885                           ;LCDv1.c: 48:     delay_1ms();
  1886  0AA9  120A  118A  2004  120A  158A  	fcall	_delay_1ms
  1887  0AAE                     l1564:	
  1888                           
  1889                           ;LCDv1.c: 49:     PORTEbits.RE2 = 0;
  1890  0AAE  1283               	bcf	3,5	;RP0=0, select bank0
  1891  0AAF  1303               	bcf	3,6	;RP1=0, select bank0
  1892  0AB0  1109               	bcf	9,2	;volatile
  1893  0AB1                     l68:	
  1894  0AB1  0008               	return
  1895  0AB2                     __end_of_lcd8_write:	
  1896                           
  1897                           	psect	text8
  1898  0004                     __ptext8:	
  1899 ;; *************** function _delay_1ms *****************
  1900 ;; Defined at:
  1901 ;;		line 71 in file "LCDv1.c"
  1902 ;; Parameters:    Size  Location     Type
  1903 ;;		None
  1904 ;; Auto vars:     Size  Location     Type
  1905 ;;  i               2    0[COMMON] int 
  1906 ;; Return value:  Size  Location     Type
  1907 ;;                  1    wreg      void 
  1908 ;; Registers used:
  1909 ;;		wreg, status,2, btemp+1
  1910 ;; Tracked objects:
  1911 ;;		On entry : 0/0
  1912 ;;		On exit  : 0/0
  1913 ;;		Unchanged: 0/0
  1914 ;; Data sizes:     COMMON   BANK0   BANK1   BANK3   BANK2
  1915 ;;      Params:         0       0       0       0       0
  1916 ;;      Locals:         2       0       0       0       0
  1917 ;;      Temps:          0       0       0       0       0
  1918 ;;      Totals:         2       0       0       0       0
  1919 ;;Total ram usage:        2 bytes
  1920 ;; Hardware stack levels used:    1
  1921 ;; This function calls:
  1922 ;;		Nothing
  1923 ;; This function is called by:
  1924 ;;		_main
  1925 ;;		_lcd8_cmd
  1926 ;;		_lcd8_write
  1927 ;; This function uses a non-reentrant model
  1928 ;;
  1929                           
  1930                           
  1931                           ;psect for function _delay_1ms
  1932  0004                     _delay_1ms:	
  1933  0004                     l1532:	
  1934                           ;incstack = 0
  1935                           ; Regs used in _delay_1ms: [wreg+status,2+btemp+1]
  1936                           
  1937                           
  1938                           ;LCDv1.c: 72:     for (int i = 0; i < 50; i++);
  1939  0004  01F0               	clrf	delay_1ms@i
  1940  0005  01F1               	clrf	delay_1ms@i+1
  1941  0006                     l1538:	
  1942  0006  3001               	movlw	1
  1943  0007  07F0               	addwf	delay_1ms@i,f
  1944  0008  1803               	skipnc
  1945  0009  0AF1               	incf	delay_1ms@i+1,f
  1946  000A  3000               	movlw	0
  1947  000B  07F1               	addwf	delay_1ms@i+1,f
  1948  000C                     l1540:	
  1949  000C  0871               	movf	delay_1ms@i+1,w
  1950  000D  3A80               	xorlw	128
  1951  000E  00FF               	movwf	btemp+1
  1952  000F  3080               	movlw	128
  1953  0010  027F               	subwf	btemp+1,w
  1954  0011  1D03               	skipz
  1955  0012  2815               	goto	u1605
  1956  0013  3032               	movlw	50
  1957  0014  0270               	subwf	delay_1ms@i,w
  1958  0015                     u1605:	
  1959  0015  1C03               	skipc
  1960  0016  2818               	goto	u1601
  1961  0017  2819               	goto	u1600
  1962  0018                     u1601:	
  1963  0018  2806               	goto	l1538
  1964  0019                     u1600:	
  1965  0019                     l88:	
  1966  0019  0008               	return
  1967  001A                     __end_of_delay_1ms:	
  1968                           
  1969                           	psect	text9
  1970  0BAA                     __ptext9:	
  1971 ;; *************** function _i2c_master_init *****************
  1972 ;; Defined at:
  1973 ;;		line 12 in file "I2C.c"
  1974 ;; Parameters:    Size  Location     Type
  1975 ;;  c               4    0[BANK0 ] unsigned long 
  1976 ;; Auto vars:     Size  Location     Type
  1977 ;;		None
  1978 ;; Return value:  Size  Location     Type
  1979 ;;                  1    wreg      void 
  1980 ;; Registers used:
  1981 ;;		wreg, status,2, status,0, pclath, cstack
  1982 ;; Tracked objects:
  1983 ;;		On entry : 0/0
  1984 ;;		On exit  : 0/0
  1985 ;;		Unchanged: 0/0
  1986 ;; Data sizes:     COMMON   BANK0   BANK1   BANK3   BANK2
  1987 ;;      Params:         0       4       0       0       0
  1988 ;;      Locals:         0       0       0       0       0
  1989 ;;      Temps:          0       4       0       0       0
  1990 ;;      Totals:         0       8       0       0       0
  1991 ;;Total ram usage:        8 bytes
  1992 ;; Hardware stack levels used:    1
  1993 ;; Hardware stack levels required when called:    1
  1994 ;; This function calls:
  1995 ;;		___lldiv
  1996 ;; This function is called by:
  1997 ;;		_main
  1998 ;; This function uses a non-reentrant model
  1999 ;;
  2000                           
  2001                           
  2002                           ;psect for function _i2c_master_init
  2003  0BAA                     _i2c_master_init:	
  2004  0BAA                     l1832:	
  2005                           ;incstack = 0
  2006                           ; Regs used in _i2c_master_init: [wreg+status,2+status,0+pclath+cstack]
  2007                           
  2008                           
  2009                           ;I2C.c: 13:     SSPCON = 0b00101000;
  2010  0BAA  3028               	movlw	40
  2011  0BAB  1283               	bcf	3,5	;RP0=0, select bank0
  2012  0BAC  1303               	bcf	3,6	;RP1=0, select bank0
  2013  0BAD  0094               	movwf	20	;volatile
  2014  0BAE                     l1834:	
  2015                           
  2016                           ;I2C.c: 14:     SSPCON2 = 0;
  2017  0BAE  1683               	bsf	3,5	;RP0=1, select bank1
  2018  0BAF  1303               	bcf	3,6	;RP1=0, select bank1
  2019  0BB0  0191               	clrf	17	;volatile
  2020  0BB1                     l1836:	
  2021                           
  2022                           ;I2C.c: 15:     SSPADD = (4000000/(4*c))-1;
  2023  0BB1  1283               	bcf	3,5	;RP0=0, select bank0
  2024  0BB2  1303               	bcf	3,6	;RP1=0, select bank0
  2025  0BB3  0820               	movf	i2c_master_init@c,w
  2026  0BB4  00A4               	movwf	??_i2c_master_init
  2027  0BB5  0821               	movf	i2c_master_init@c+1,w
  2028  0BB6  00A5               	movwf	??_i2c_master_init+1
  2029  0BB7  0822               	movf	i2c_master_init@c+2,w
  2030  0BB8  00A6               	movwf	??_i2c_master_init+2
  2031  0BB9  0823               	movf	i2c_master_init@c+3,w
  2032  0BBA  00A7               	movwf	??_i2c_master_init+3
  2033  0BBB  3002               	movlw	2
  2034  0BBC                     u2195:	
  2035  0BBC  1003               	clrc
  2036  0BBD  0DA4               	rlf	??_i2c_master_init,f
  2037  0BBE  0DA5               	rlf	??_i2c_master_init+1,f
  2038  0BBF  0DA6               	rlf	??_i2c_master_init+2,f
  2039  0BC0  0DA7               	rlf	??_i2c_master_init+3,f
  2040  0BC1                     u2190:	
  2041  0BC1  3EFF               	addlw	-1
  2042  0BC2  1D03               	skipz
  2043  0BC3  2BBC               	goto	u2195
  2044  0BC4  0827               	movf	??_i2c_master_init+3,w
  2045  0BC5  00F3               	movwf	___lldiv@divisor+3
  2046  0BC6  0826               	movf	??_i2c_master_init+2,w
  2047  0BC7  00F2               	movwf	___lldiv@divisor+2
  2048  0BC8  0825               	movf	??_i2c_master_init+1,w
  2049  0BC9  00F1               	movwf	___lldiv@divisor+1
  2050  0BCA  0824               	movf	??_i2c_master_init,w
  2051  0BCB  00F0               	movwf	___lldiv@divisor
  2052  0BCC  3000               	movlw	0
  2053  0BCD  00F7               	movwf	___lldiv@dividend+3
  2054  0BCE  303D               	movlw	61
  2055  0BCF  00F6               	movwf	___lldiv@dividend+2
  2056  0BD0  3009               	movlw	9
  2057  0BD1  00F5               	movwf	___lldiv@dividend+1
  2058  0BD2  3000               	movlw	0
  2059  0BD3  00F4               	movwf	___lldiv@dividend
  2060  0BD4  120A  158A  2438  120A  158A  	fcall	___lldiv
  2061  0BD9  0870               	movf	?___lldiv,w
  2062  0BDA  3EFF               	addlw	255
  2063  0BDB  1683               	bsf	3,5	;RP0=1, select bank1
  2064  0BDC  1303               	bcf	3,6	;RP1=0, select bank1
  2065  0BDD  0093               	movwf	19	;volatile
  2066  0BDE                     l1838:	
  2067                           
  2068                           ;I2C.c: 16:     SSPSTAT = 0;
  2069  0BDE  0194               	clrf	20	;volatile
  2070  0BDF                     l1840:	
  2071                           
  2072                           ;I2C.c: 17:     TRISCbits.TRISC3 = 1;
  2073  0BDF  1587               	bsf	7,3	;volatile
  2074  0BE0                     l1842:	
  2075                           
  2076                           ;I2C.c: 18:     TRISCbits.TRISC4 = 1;
  2077  0BE0  1607               	bsf	7,4	;volatile
  2078  0BE1                     l111:	
  2079  0BE1  0008               	return
  2080  0BE2                     __end_of_i2c_master_init:	
  2081                           
  2082                           	psect	text10
  2083  0C38                     __ptext10:	
  2084 ;; *************** function ___lldiv *****************
  2085 ;; Defined at:
  2086 ;;		line 5 in file "C:\Program Files (x86)\Microchip\xc8\v2.10\pic\sources\c90\common\__lldiv.c"
  2087 ;; Parameters:    Size  Location     Type
  2088 ;;  divisor         4    0[COMMON] unsigned long 
  2089 ;;  dividend        4    4[COMMON] unsigned long 
  2090 ;; Auto vars:     Size  Location     Type
  2091 ;;  quotient        4    9[COMMON] unsigned long 
  2092 ;;  counter         1   13[COMMON] unsigned char 
  2093 ;; Return value:  Size  Location     Type
  2094 ;;                  4    0[COMMON] unsigned long 
  2095 ;; Registers used:
  2096 ;;		wreg, status,2, status,0
  2097 ;; Tracked objects:
  2098 ;;		On entry : 0/0
  2099 ;;		On exit  : 0/0
  2100 ;;		Unchanged: 0/0
  2101 ;; Data sizes:     COMMON   BANK0   BANK1   BANK3   BANK2
  2102 ;;      Params:         8       0       0       0       0
  2103 ;;      Locals:         5       0       0       0       0
  2104 ;;      Temps:          1       0       0       0       0
  2105 ;;      Totals:        14       0       0       0       0
  2106 ;;Total ram usage:       14 bytes
  2107 ;; Hardware stack levels used:    1
  2108 ;; This function calls:
  2109 ;;		Nothing
  2110 ;; This function is called by:
  2111 ;;		_i2c_master_init
  2112 ;; This function uses a non-reentrant model
  2113 ;;
  2114                           
  2115                           
  2116                           ;psect for function ___lldiv
  2117  0C38                     ___lldiv:	
  2118  0C38                     l1570:	
  2119                           ;incstack = 0
  2120                           ; Regs used in ___lldiv: [wreg+status,2+status,0]
  2121                           
  2122  0C38  3000               	movlw	0
  2123  0C39  00FC               	movwf	___lldiv@quotient+3
  2124  0C3A  3000               	movlw	0
  2125  0C3B  00FB               	movwf	___lldiv@quotient+2
  2126  0C3C  3000               	movlw	0
  2127  0C3D  00FA               	movwf	___lldiv@quotient+1
  2128  0C3E  3000               	movlw	0
  2129  0C3F  00F9               	movwf	___lldiv@quotient
  2130  0C40  0873               	movf	___lldiv@divisor+3,w
  2131  0C41  0472               	iorwf	___lldiv@divisor+2,w
  2132  0C42  0471               	iorwf	___lldiv@divisor+1,w
  2133  0C43  0470               	iorwf	___lldiv@divisor,w
  2134  0C44  1903               	skipnz
  2135  0C45  2C47               	goto	u1631
  2136  0C46  2C48               	goto	u1630
  2137  0C47                     u1631:	
  2138  0C47  2C95               	goto	l1590
  2139  0C48                     u1630:	
  2140  0C48                     l1572:	
  2141  0C48  01FD               	clrf	___lldiv@counter
  2142  0C49  0AFD               	incf	___lldiv@counter,f
  2143  0C4A  2C58               	goto	l1576
  2144  0C4B                     l1574:	
  2145  0C4B  3001               	movlw	1
  2146  0C4C  00F8               	movwf	??___lldiv
  2147  0C4D                     u1645:	
  2148  0C4D  1003               	clrc
  2149  0C4E  0DF0               	rlf	___lldiv@divisor,f
  2150  0C4F  0DF1               	rlf	___lldiv@divisor+1,f
  2151  0C50  0DF2               	rlf	___lldiv@divisor+2,f
  2152  0C51  0DF3               	rlf	___lldiv@divisor+3,f
  2153  0C52  0BF8               	decfsz	??___lldiv,f
  2154  0C53  2C4D               	goto	u1645
  2155  0C54  3001               	movlw	1
  2156  0C55  00F8               	movwf	??___lldiv
  2157  0C56  0878               	movf	??___lldiv,w
  2158  0C57  07FD               	addwf	___lldiv@counter,f
  2159  0C58                     l1576:	
  2160  0C58  1FF3               	btfss	___lldiv@divisor+3,7
  2161  0C59  2C5B               	goto	u1651
  2162  0C5A  2C5C               	goto	u1650
  2163  0C5B                     u1651:	
  2164  0C5B  2C4B               	goto	l1574
  2165  0C5C                     u1650:	
  2166  0C5C                     l1578:	
  2167  0C5C  3001               	movlw	1
  2168  0C5D  00F8               	movwf	??___lldiv
  2169  0C5E                     u1665:	
  2170  0C5E  1003               	clrc
  2171  0C5F  0DF9               	rlf	___lldiv@quotient,f
  2172  0C60  0DFA               	rlf	___lldiv@quotient+1,f
  2173  0C61  0DFB               	rlf	___lldiv@quotient+2,f
  2174  0C62  0DFC               	rlf	___lldiv@quotient+3,f
  2175  0C63  0BF8               	decfsz	??___lldiv,f
  2176  0C64  2C5E               	goto	u1665
  2177  0C65                     l1580:	
  2178  0C65  0873               	movf	___lldiv@divisor+3,w
  2179  0C66  0277               	subwf	___lldiv@dividend+3,w
  2180  0C67  1D03               	skipz
  2181  0C68  2C73               	goto	u1675
  2182  0C69  0872               	movf	___lldiv@divisor+2,w
  2183  0C6A  0276               	subwf	___lldiv@dividend+2,w
  2184  0C6B  1D03               	skipz
  2185  0C6C  2C73               	goto	u1675
  2186  0C6D  0871               	movf	___lldiv@divisor+1,w
  2187  0C6E  0275               	subwf	___lldiv@dividend+1,w
  2188  0C6F  1D03               	skipz
  2189  0C70  2C73               	goto	u1675
  2190  0C71  0870               	movf	___lldiv@divisor,w
  2191  0C72  0274               	subwf	___lldiv@dividend,w
  2192  0C73                     u1675:	
  2193  0C73  1C03               	skipc
  2194  0C74  2C76               	goto	u1671
  2195  0C75  2C77               	goto	u1670
  2196  0C76                     u1671:	
  2197  0C76  2C86               	goto	l1586
  2198  0C77                     u1670:	
  2199  0C77                     l1582:	
  2200  0C77  0870               	movf	___lldiv@divisor,w
  2201  0C78  02F4               	subwf	___lldiv@dividend,f
  2202  0C79  0871               	movf	___lldiv@divisor+1,w
  2203  0C7A  1C03               	skipc
  2204  0C7B  0F71               	incfsz	___lldiv@divisor+1,w
  2205  0C7C  02F5               	subwf	___lldiv@dividend+1,f
  2206  0C7D  0872               	movf	___lldiv@divisor+2,w
  2207  0C7E  1C03               	skipc
  2208  0C7F  0F72               	incfsz	___lldiv@divisor+2,w
  2209  0C80  02F6               	subwf	___lldiv@dividend+2,f
  2210  0C81  0873               	movf	___lldiv@divisor+3,w
  2211  0C82  1C03               	skipc
  2212  0C83  0F73               	incfsz	___lldiv@divisor+3,w
  2213  0C84  02F7               	subwf	___lldiv@dividend+3,f
  2214  0C85                     l1584:	
  2215  0C85  1479               	bsf	___lldiv@quotient,0
  2216  0C86                     l1586:	
  2217  0C86  3001               	movlw	1
  2218  0C87                     u1685:	
  2219  0C87  1003               	clrc
  2220  0C88  0CF3               	rrf	___lldiv@divisor+3,f
  2221  0C89  0CF2               	rrf	___lldiv@divisor+2,f
  2222  0C8A  0CF1               	rrf	___lldiv@divisor+1,f
  2223  0C8B  0CF0               	rrf	___lldiv@divisor,f
  2224  0C8C  3EFF               	addlw	-1
  2225  0C8D  1D03               	skipz
  2226  0C8E  2C87               	goto	u1685
  2227  0C8F                     l1588:	
  2228  0C8F  3001               	movlw	1
  2229  0C90  02FD               	subwf	___lldiv@counter,f
  2230  0C91  1D03               	btfss	3,2
  2231  0C92  2C94               	goto	u1691
  2232  0C93  2C95               	goto	u1690
  2233  0C94                     u1691:	
  2234  0C94  2C5C               	goto	l1578
  2235  0C95                     u1690:	
  2236  0C95                     l1590:	
  2237  0C95  087C               	movf	___lldiv@quotient+3,w
  2238  0C96  00F3               	movwf	?___lldiv+3
  2239  0C97  087B               	movf	___lldiv@quotient+2,w
  2240  0C98  00F2               	movwf	?___lldiv+2
  2241  0C99  087A               	movf	___lldiv@quotient+1,w
  2242  0C9A  00F1               	movwf	?___lldiv+1
  2243  0C9B  0879               	movf	___lldiv@quotient,w
  2244  0C9C  00F0               	movwf	?___lldiv
  2245  0C9D                     l260:	
  2246  0C9D  0008               	return
  2247  0C9E                     __end_of___lldiv:	
  2248                           
  2249                           	psect	text11
  2250  0A73                     __ptext11:	
  2251 ;; *************** function _i2c_masterWrite *****************
  2252 ;; Defined at:
  2253 ;;		line 40 in file "I2C.c"
  2254 ;; Parameters:    Size  Location     Type
  2255 ;;  data            2    0[COMMON] unsigned int 
  2256 ;; Auto vars:     Size  Location     Type
  2257 ;;		None
  2258 ;; Return value:  Size  Location     Type
  2259 ;;                  1    wreg      void 
  2260 ;; Registers used:
  2261 ;;		wreg, status,2, status,0, pclath, cstack
  2262 ;; Tracked objects:
  2263 ;;		On entry : 0/0
  2264 ;;		On exit  : 0/0
  2265 ;;		Unchanged: 0/0
  2266 ;; Data sizes:     COMMON   BANK0   BANK1   BANK3   BANK2
  2267 ;;      Params:         2       0       0       0       0
  2268 ;;      Locals:         0       0       0       0       0
  2269 ;;      Temps:          0       0       0       0       0
  2270 ;;      Totals:         2       0       0       0       0
  2271 ;;Total ram usage:        2 bytes
  2272 ;; Hardware stack levels used:    1
  2273 ;; Hardware stack levels required when called:    1
  2274 ;; This function calls:
  2275 ;;		_i2c_masterWait
  2276 ;; This function is called by:
  2277 ;;		_main
  2278 ;; This function uses a non-reentrant model
  2279 ;;
  2280                           
  2281                           
  2282                           ;psect for function _i2c_masterWrite
  2283  0A73                     _i2c_masterWrite:	
  2284  0A73                     l1864:	
  2285                           ;incstack = 0
  2286                           ; Regs used in _i2c_masterWrite: [wreg+status,2+status,0+pclath+cstack]
  2287                           
  2288                           
  2289                           ;I2C.c: 41:     i2c_masterWait();
  2290  0A73  120A  158A  2287  120A  158A  	fcall	_i2c_masterWait
  2291  0A78                     l1866:	
  2292                           
  2293                           ;I2C.c: 42:     SSPBUF = data;
  2294  0A78  0870               	movf	i2c_masterWrite@data,w
  2295  0A79  1283               	bcf	3,5	;RP0=0, select bank0
  2296  0A7A  1303               	bcf	3,6	;RP1=0, select bank0
  2297  0A7B  0093               	movwf	19	;volatile
  2298  0A7C                     l129:	
  2299  0A7C  0008               	return
  2300  0A7D                     __end_of_i2c_masterWrite:	
  2301                           
  2302                           	psect	text12
  2303  0A6A                     __ptext12:	
  2304 ;; *************** function _i2c_masterStop *****************
  2305 ;; Defined at:
  2306 ;;		line 35 in file "I2C.c"
  2307 ;; Parameters:    Size  Location     Type
  2308 ;;		None
  2309 ;; Auto vars:     Size  Location     Type
  2310 ;;		None
  2311 ;; Return value:  Size  Location     Type
  2312 ;;                  1    wreg      void 
  2313 ;; Registers used:
  2314 ;;		wreg, status,2, status,0, pclath, cstack
  2315 ;; Tracked objects:
  2316 ;;		On entry : 0/0
  2317 ;;		On exit  : 0/0
  2318 ;;		Unchanged: 0/0
  2319 ;; Data sizes:     COMMON   BANK0   BANK1   BANK3   BANK2
  2320 ;;      Params:         0       0       0       0       0
  2321 ;;      Locals:         0       0       0       0       0
  2322 ;;      Temps:          0       0       0       0       0
  2323 ;;      Totals:         0       0       0       0       0
  2324 ;;Total ram usage:        0 bytes
  2325 ;; Hardware stack levels used:    1
  2326 ;; Hardware stack levels required when called:    1
  2327 ;; This function calls:
  2328 ;;		_i2c_masterWait
  2329 ;; This function is called by:
  2330 ;;		_main
  2331 ;; This function uses a non-reentrant model
  2332 ;;
  2333                           
  2334                           
  2335                           ;psect for function _i2c_masterStop
  2336  0A6A                     _i2c_masterStop:	
  2337  0A6A                     l1888:	
  2338                           ;incstack = 0
  2339                           ; Regs used in _i2c_masterStop: [wreg+status,2+status,0+pclath+cstack]
  2340                           
  2341                           
  2342                           ;I2C.c: 36:     i2c_masterWait();
  2343  0A6A  120A  158A  2287  120A  158A  	fcall	_i2c_masterWait
  2344  0A6F                     l1890:	
  2345                           
  2346                           ;I2C.c: 37:     SSPCON2bits.PEN = 1;
  2347  0A6F  1683               	bsf	3,5	;RP0=1, select bank1
  2348  0A70  1303               	bcf	3,6	;RP1=0, select bank1
  2349  0A71  1511               	bsf	17,2	;volatile
  2350  0A72                     l126:	
  2351  0A72  0008               	return
  2352  0A73                     __end_of_i2c_masterStop:	
  2353                           
  2354                           	psect	text13
  2355  0A61                     __ptext13:	
  2356 ;; *************** function _i2c_masterStart *****************
  2357 ;; Defined at:
  2358 ;;		line 25 in file "I2C.c"
  2359 ;; Parameters:    Size  Location     Type
  2360 ;;		None
  2361 ;; Auto vars:     Size  Location     Type
  2362 ;;		None
  2363 ;; Return value:  Size  Location     Type
  2364 ;;                  1    wreg      void 
  2365 ;; Registers used:
  2366 ;;		wreg, status,2, status,0, pclath, cstack
  2367 ;; Tracked objects:
  2368 ;;		On entry : 0/0
  2369 ;;		On exit  : 0/0
  2370 ;;		Unchanged: 0/0
  2371 ;; Data sizes:     COMMON   BANK0   BANK1   BANK3   BANK2
  2372 ;;      Params:         0       0       0       0       0
  2373 ;;      Locals:         0       0       0       0       0
  2374 ;;      Temps:          0       0       0       0       0
  2375 ;;      Totals:         0       0       0       0       0
  2376 ;;Total ram usage:        0 bytes
  2377 ;; Hardware stack levels used:    1
  2378 ;; Hardware stack levels required when called:    1
  2379 ;; This function calls:
  2380 ;;		_i2c_masterWait
  2381 ;; This function is called by:
  2382 ;;		_main
  2383 ;; This function uses a non-reentrant model
  2384 ;;
  2385                           
  2386                           
  2387                           ;psect for function _i2c_masterStart
  2388  0A61                     _i2c_masterStart:	
  2389  0A61                     l1860:	
  2390                           ;incstack = 0
  2391                           ; Regs used in _i2c_masterStart: [wreg+status,2+status,0+pclath+cstack]
  2392                           
  2393                           
  2394                           ;I2C.c: 26:     i2c_masterWait();
  2395  0A61  120A  158A  2287  120A  158A  	fcall	_i2c_masterWait
  2396  0A66                     l1862:	
  2397                           
  2398                           ;I2C.c: 27:     SSPCON2bits.SEN = 1;
  2399  0A66  1683               	bsf	3,5	;RP0=1, select bank1
  2400  0A67  1303               	bcf	3,6	;RP1=0, select bank1
  2401  0A68  1411               	bsf	17,0	;volatile
  2402  0A69                     l120:	
  2403  0A69  0008               	return
  2404  0A6A                     __end_of_i2c_masterStart:	
  2405                           
  2406                           	psect	text14
  2407  0B74                     __ptext14:	
  2408 ;; *************** function _i2c_masterRead *****************
  2409 ;; Defined at:
  2410 ;;		line 45 in file "I2C.c"
  2411 ;; Parameters:    Size  Location     Type
  2412 ;;  a               2    0[COMMON] unsigned short 
  2413 ;; Auto vars:     Size  Location     Type
  2414 ;;  temp            2    4[COMMON] unsigned short 
  2415 ;; Return value:  Size  Location     Type
  2416 ;;                  2    0[COMMON] unsigned short 
  2417 ;; Registers used:
  2418 ;;		wreg, status,2, status,0, pclath, cstack
  2419 ;; Tracked objects:
  2420 ;;		On entry : 0/0
  2421 ;;		On exit  : 0/0
  2422 ;;		Unchanged: 0/0
  2423 ;; Data sizes:     COMMON   BANK0   BANK1   BANK3   BANK2
  2424 ;;      Params:         2       0       0       0       0
  2425 ;;      Locals:         2       0       0       0       0
  2426 ;;      Temps:          2       0       0       0       0
  2427 ;;      Totals:         6       0       0       0       0
  2428 ;;Total ram usage:        6 bytes
  2429 ;; Hardware stack levels used:    1
  2430 ;; Hardware stack levels required when called:    1
  2431 ;; This function calls:
  2432 ;;		_i2c_masterWait
  2433 ;; This function is called by:
  2434 ;;		_main
  2435 ;; This function uses a non-reentrant model
  2436 ;;
  2437                           
  2438                           
  2439                           ;psect for function _i2c_masterRead
  2440  0B74                     _i2c_masterRead:	
  2441  0B74                     l1868:	
  2442                           ;incstack = 0
  2443                           ; Regs used in _i2c_masterRead: [wreg+status,2+status,0+pclath+cstack]
  2444                           
  2445                           
  2446                           ;I2C.c: 46:     unsigned short temp;;I2C.c: 47:     i2c_masterWait();
  2447  0B74  120A  158A  2287  120A  158A  	fcall	_i2c_masterWait
  2448  0B79                     l1870:	
  2449                           
  2450                           ;I2C.c: 48:     SSPCON2bits.RCEN = 1;
  2451  0B79  1683               	bsf	3,5	;RP0=1, select bank1
  2452  0B7A  1303               	bcf	3,6	;RP1=0, select bank1
  2453  0B7B  1591               	bsf	17,3	;volatile
  2454                           
  2455                           ;I2C.c: 49:     i2c_masterWait();
  2456  0B7C  120A  158A  2287  120A  158A  	fcall	_i2c_masterWait
  2457  0B81                     l1872:	
  2458                           
  2459                           ;I2C.c: 50:     temp = SSPBUF;
  2460  0B81  1283               	bcf	3,5	;RP0=0, select bank0
  2461  0B82  1303               	bcf	3,6	;RP1=0, select bank0
  2462  0B83  0813               	movf	19,w	;volatile
  2463  0B84  00F2               	movwf	??_i2c_masterRead
  2464  0B85  01F3               	clrf	??_i2c_masterRead+1
  2465  0B86  0872               	movf	??_i2c_masterRead,w
  2466  0B87  00F4               	movwf	i2c_masterRead@temp
  2467  0B88  0873               	movf	??_i2c_masterRead+1,w
  2468  0B89  00F5               	movwf	i2c_masterRead@temp+1
  2469  0B8A                     l1874:	
  2470                           
  2471                           ;I2C.c: 51:     i2c_masterWait();
  2472  0B8A  120A  158A  2287  120A  158A  	fcall	_i2c_masterWait
  2473  0B8F                     l1876:	
  2474                           
  2475                           ;I2C.c: 52:     if (a == 0){
  2476  0B8F  0870               	movf	i2c_masterRead@a,w
  2477  0B90  0471               	iorwf	i2c_masterRead@a+1,w
  2478  0B91  1D03               	btfss	3,2
  2479  0B92  2B94               	goto	u2231
  2480  0B93  2B95               	goto	u2230
  2481  0B94                     u2231:	
  2482  0B94  2B99               	goto	l1880
  2483  0B95                     u2230:	
  2484  0B95                     l1878:	
  2485                           
  2486                           ;I2C.c: 53:         SSPCON2bits.ACKDT = 1;
  2487  0B95  1683               	bsf	3,5	;RP0=1, select bank1
  2488  0B96  1303               	bcf	3,6	;RP1=0, select bank1
  2489  0B97  1691               	bsf	17,5	;volatile
  2490                           
  2491                           ;I2C.c: 54:     }
  2492  0B98  2BA2               	goto	l133
  2493  0B99                     l1880:	
  2494  0B99  0370               	decf	i2c_masterRead@a,w
  2495  0B9A  0471               	iorwf	i2c_masterRead@a+1,w
  2496  0B9B  1D03               	btfss	3,2
  2497  0B9C  2B9E               	goto	u2241
  2498  0B9D  2B9F               	goto	u2240
  2499  0B9E                     u2241:	
  2500  0B9E  2BA2               	goto	l133
  2501  0B9F                     u2240:	
  2502  0B9F                     l1882:	
  2503                           
  2504                           ;I2C.c: 56:         SSPCON2bits.ACKDT = 0;
  2505  0B9F  1683               	bsf	3,5	;RP0=1, select bank1
  2506  0BA0  1303               	bcf	3,6	;RP1=0, select bank1
  2507  0BA1  1291               	bcf	17,5	;volatile
  2508  0BA2                     l133:	
  2509                           
  2510                           ;I2C.c: 58:     SSPCON2bits.ACKEN = 1;
  2511  0BA2  1683               	bsf	3,5	;RP0=1, select bank1
  2512  0BA3  1303               	bcf	3,6	;RP1=0, select bank1
  2513  0BA4  1611               	bsf	17,4	;volatile
  2514  0BA5                     l1884:	
  2515                           
  2516                           ;I2C.c: 59:     return temp;
  2517  0BA5  0875               	movf	i2c_masterRead@temp+1,w
  2518  0BA6  00F1               	movwf	?_i2c_masterRead+1
  2519  0BA7  0874               	movf	i2c_masterRead@temp,w
  2520  0BA8  00F0               	movwf	?_i2c_masterRead
  2521  0BA9                     l135:	
  2522  0BA9  0008               	return
  2523  0BAA                     __end_of_i2c_masterRead:	
  2524                           
  2525                           	psect	text15
  2526  0A87                     __ptext15:	
  2527 ;; *************** function _i2c_masterWait *****************
  2528 ;; Defined at:
  2529 ;;		line 21 in file "I2C.c"
  2530 ;; Parameters:    Size  Location     Type
  2531 ;;		None
  2532 ;; Auto vars:     Size  Location     Type
  2533 ;;		None
  2534 ;; Return value:  Size  Location     Type
  2535 ;;                  1    wreg      void 
  2536 ;; Registers used:
  2537 ;;		wreg, status,2
  2538 ;; Tracked objects:
  2539 ;;		On entry : 0/0
  2540 ;;		On exit  : 0/0
  2541 ;;		Unchanged: 0/0
  2542 ;; Data sizes:     COMMON   BANK0   BANK1   BANK3   BANK2
  2543 ;;      Params:         0       0       0       0       0
  2544 ;;      Locals:         0       0       0       0       0
  2545 ;;      Temps:          0       0       0       0       0
  2546 ;;      Totals:         0       0       0       0       0
  2547 ;;Total ram usage:        0 bytes
  2548 ;; Hardware stack levels used:    1
  2549 ;; This function calls:
  2550 ;;		Nothing
  2551 ;; This function is called by:
  2552 ;;		_i2c_masterStart
  2553 ;;		_i2c_masterStop
  2554 ;;		_i2c_masterWrite
  2555 ;;		_i2c_masterRead
  2556 ;;		_i2c_master_RStart
  2557 ;; This function uses a non-reentrant model
  2558 ;;
  2559                           
  2560                           
  2561                           ;psect for function _i2c_masterWait
  2562  0A87                     _i2c_masterWait:	
  2563  0A87                     l1566:	
  2564                           ;incstack = 0
  2565                           ; Regs used in _i2c_masterWait: [wreg+status,2]
  2566                           
  2567  0A87                     l114:	
  2568                           ;I2C.c: 22:     while ((SSPSTAT & 0x04) || (SSPCON2 & 0x1F));
  2569                           
  2570  0A87  1683               	bsf	3,5	;RP0=1, select bank1
  2571  0A88  1303               	bcf	3,6	;RP1=0, select bank1
  2572  0A89  1914               	btfsc	20,2	;volatile
  2573  0A8A  2A8C               	goto	u1611
  2574  0A8B  2A8D               	goto	u1610
  2575  0A8C                     u1611:	
  2576  0A8C  2A87               	goto	l114
  2577  0A8D                     u1610:	
  2578  0A8D                     l1568:	
  2579  0A8D  0811               	movf	17,w	;volatile
  2580  0A8E  391F               	andlw	31
  2581  0A8F  1D03               	btfss	3,2
  2582  0A90  2A92               	goto	u1621
  2583  0A91  2A93               	goto	u1620
  2584  0A92                     u1621:	
  2585  0A92  2A87               	goto	l114
  2586  0A93                     u1620:	
  2587  0A93                     l117:	
  2588  0A93  0008               	return
  2589  0A94                     __end_of_i2c_masterWait:	
  2590                           
  2591                           	psect	text16
  2592  0D1A                     __ptext16:	
  2593 ;; *************** function ___xxtofl *****************
  2594 ;; Defined at:
  2595 ;;		line 10 in file "C:\Program Files (x86)\Microchip\xc8\v2.10\pic\sources\c90\common\xxtofl.c"
  2596 ;; Parameters:    Size  Location     Type
  2597 ;;  sign            1    wreg     unsigned char 
  2598 ;;  val             4    6[COMMON] long 
  2599 ;; Auto vars:     Size  Location     Type
  2600 ;;  sign            1    0[BANK0 ] unsigned char 
  2601 ;;  arg             4    2[BANK0 ] unsigned long 
  2602 ;;  exp             1    1[BANK0 ] unsigned char 
  2603 ;; Return value:  Size  Location     Type
  2604 ;;                  4    6[COMMON] unsigned char 
  2605 ;; Registers used:
  2606 ;;		wreg, status,2, status,0
  2607 ;; Tracked objects:
  2608 ;;		On entry : 0/0
  2609 ;;		On exit  : 0/0
  2610 ;;		Unchanged: 0/0
  2611 ;; Data sizes:     COMMON   BANK0   BANK1   BANK3   BANK2
  2612 ;;      Params:         4       0       0       0       0
  2613 ;;      Locals:         0       6       0       0       0
  2614 ;;      Temps:          4       0       0       0       0
  2615 ;;      Totals:         8       6       0       0       0
  2616 ;;Total ram usage:       14 bytes
  2617 ;; Hardware stack levels used:    1
  2618 ;; This function calls:
  2619 ;;		Nothing
  2620 ;; This function is called by:
  2621 ;;		_main
  2622 ;; This function uses a non-reentrant model
  2623 ;;
  2624                           
  2625                           
  2626                           ;psect for function ___xxtofl
  2627  0D1A                     ___xxtofl:	
  2628                           
  2629                           ;incstack = 0
  2630                           ; Regs used in ___xxtofl: [wreg+status,2+status,0]
  2631                           ;___xxtofl@sign stored from wreg
  2632  0D1A  1283               	bcf	3,5	;RP0=0, select bank0
  2633  0D1B  1303               	bcf	3,6	;RP1=0, select bank0
  2634  0D1C  00A0               	movwf	___xxtofl@sign
  2635  0D1D                     l2232:	
  2636  0D1D  0820               	movf	___xxtofl@sign,w
  2637  0D1E  1903               	btfsc	3,2
  2638  0D1F  2D21               	goto	u3051
  2639  0D20  2D22               	goto	u3050
  2640  0D21                     u3051:	
  2641  0D21  2D36               	goto	l2238
  2642  0D22                     u3050:	
  2643  0D22                     l2234:	
  2644  0D22  1FF9               	btfss	___xxtofl@val+3,7
  2645  0D23  2D25               	goto	u3061
  2646  0D24  2D26               	goto	u3060
  2647  0D25                     u3061:	
  2648  0D25  2D36               	goto	l2238
  2649  0D26                     u3060:	
  2650  0D26                     l2236:	
  2651  0D26  0976               	comf	___xxtofl@val,w
  2652  0D27  00A2               	movwf	___xxtofl@arg
  2653  0D28  0977               	comf	___xxtofl@val+1,w
  2654  0D29  00A3               	movwf	___xxtofl@arg+1
  2655  0D2A  0978               	comf	___xxtofl@val+2,w
  2656  0D2B  00A4               	movwf	___xxtofl@arg+2
  2657  0D2C  0979               	comf	___xxtofl@val+3,w
  2658  0D2D  00A5               	movwf	___xxtofl@arg+3
  2659  0D2E  0AA2               	incf	___xxtofl@arg,f
  2660  0D2F  1903               	skipnz
  2661  0D30  0AA3               	incf	___xxtofl@arg+1,f
  2662  0D31  1903               	skipnz
  2663  0D32  0AA4               	incf	___xxtofl@arg+2,f
  2664  0D33  1903               	skipnz
  2665  0D34  0AA5               	incf	___xxtofl@arg+3,f
  2666  0D35  2D3E               	goto	l651
  2667  0D36                     l2238:	
  2668  0D36  0879               	movf	___xxtofl@val+3,w
  2669  0D37  00A5               	movwf	___xxtofl@arg+3
  2670  0D38  0878               	movf	___xxtofl@val+2,w
  2671  0D39  00A4               	movwf	___xxtofl@arg+2
  2672  0D3A  0877               	movf	___xxtofl@val+1,w
  2673  0D3B  00A3               	movwf	___xxtofl@arg+1
  2674  0D3C  0876               	movf	___xxtofl@val,w
  2675  0D3D  00A2               	movwf	___xxtofl@arg
  2676  0D3E                     l651:	
  2677  0D3E  0879               	movf	___xxtofl@val+3,w
  2678  0D3F  0478               	iorwf	___xxtofl@val+2,w
  2679  0D40  0477               	iorwf	___xxtofl@val+1,w
  2680  0D41  0476               	iorwf	___xxtofl@val,w
  2681  0D42  1D03               	skipz
  2682  0D43  2D45               	goto	u3071
  2683  0D44  2D46               	goto	u3070
  2684  0D45                     u3071:	
  2685  0D45  2D4F               	goto	l2244
  2686  0D46                     u3070:	
  2687  0D46                     l2240:	
  2688  0D46  3000               	movlw	0
  2689  0D47  00F9               	movwf	?___xxtofl+3
  2690  0D48  3000               	movlw	0
  2691  0D49  00F8               	movwf	?___xxtofl+2
  2692  0D4A  3000               	movlw	0
  2693  0D4B  00F7               	movwf	?___xxtofl+1
  2694  0D4C  3000               	movlw	0
  2695  0D4D  00F6               	movwf	?___xxtofl
  2696  0D4E  2DD5               	goto	l653
  2697  0D4F                     l2244:	
  2698  0D4F  3096               	movlw	150
  2699  0D50  00FA               	movwf	??___xxtofl
  2700  0D51  087A               	movf	??___xxtofl,w
  2701  0D52  00A1               	movwf	___xxtofl@exp
  2702  0D53  2D61               	goto	l2248
  2703  0D54                     l2246:	
  2704  0D54  3001               	movlw	1
  2705  0D55  00FA               	movwf	??___xxtofl
  2706  0D56  087A               	movf	??___xxtofl,w
  2707  0D57  07A1               	addwf	___xxtofl@exp,f
  2708  0D58  3001               	movlw	1
  2709  0D59                     u3085:	
  2710  0D59  1003               	clrc
  2711  0D5A  0CA5               	rrf	___xxtofl@arg+3,f
  2712  0D5B  0CA4               	rrf	___xxtofl@arg+2,f
  2713  0D5C  0CA3               	rrf	___xxtofl@arg+1,f
  2714  0D5D  0CA2               	rrf	___xxtofl@arg,f
  2715  0D5E  3EFF               	addlw	-1
  2716  0D5F  1D03               	skipz
  2717  0D60  2D59               	goto	u3085
  2718  0D61                     l2248:	
  2719  0D61  30FE               	movlw	254
  2720  0D62  0525               	andwf	___xxtofl@arg+3,w
  2721  0D63  1D03               	btfss	3,2
  2722  0D64  2D66               	goto	u3091
  2723  0D65  2D67               	goto	u3090
  2724  0D66                     u3091:	
  2725  0D66  2D54               	goto	l2246
  2726  0D67                     u3090:	
  2727  0D67  2D83               	goto	l657
  2728  0D68                     l2250:	
  2729  0D68  3001               	movlw	1
  2730  0D69  00FA               	movwf	??___xxtofl
  2731  0D6A  087A               	movf	??___xxtofl,w
  2732  0D6B  07A1               	addwf	___xxtofl@exp,f
  2733  0D6C                     l2252:	
  2734  0D6C  3001               	movlw	1
  2735  0D6D  07A2               	addwf	___xxtofl@arg,f
  2736  0D6E  3000               	movlw	0
  2737  0D6F  1803               	skipnc
  2738  0D70  3001               	movlw	1
  2739  0D71  07A3               	addwf	___xxtofl@arg+1,f
  2740  0D72  3000               	movlw	0
  2741  0D73  1803               	skipnc
  2742  0D74  3001               	movlw	1
  2743  0D75  07A4               	addwf	___xxtofl@arg+2,f
  2744  0D76  3000               	movlw	0
  2745  0D77  1803               	skipnc
  2746  0D78  3001               	movlw	1
  2747  0D79  07A5               	addwf	___xxtofl@arg+3,f
  2748  0D7A                     l2254:	
  2749  0D7A  3001               	movlw	1
  2750  0D7B                     u3105:	
  2751  0D7B  1003               	clrc
  2752  0D7C  0CA5               	rrf	___xxtofl@arg+3,f
  2753  0D7D  0CA4               	rrf	___xxtofl@arg+2,f
  2754  0D7E  0CA3               	rrf	___xxtofl@arg+1,f
  2755  0D7F  0CA2               	rrf	___xxtofl@arg,f
  2756  0D80  3EFF               	addlw	-1
  2757  0D81  1D03               	skipz
  2758  0D82  2D7B               	goto	u3105
  2759  0D83                     l657:	
  2760  0D83  30FF               	movlw	255
  2761  0D84  0525               	andwf	___xxtofl@arg+3,w
  2762  0D85  1D03               	btfss	3,2
  2763  0D86  2D88               	goto	u3111
  2764  0D87  2D89               	goto	u3110
  2765  0D88                     u3111:	
  2766  0D88  2D68               	goto	l2250
  2767  0D89                     u3110:	
  2768  0D89  2D95               	goto	l2258
  2769  0D8A                     l2256:	
  2770  0D8A  3001               	movlw	1
  2771  0D8B  02A1               	subwf	___xxtofl@exp,f
  2772  0D8C  3001               	movlw	1
  2773  0D8D  00FA               	movwf	??___xxtofl
  2774  0D8E                     u3125:	
  2775  0D8E  1003               	clrc
  2776  0D8F  0DA2               	rlf	___xxtofl@arg,f
  2777  0D90  0DA3               	rlf	___xxtofl@arg+1,f
  2778  0D91  0DA4               	rlf	___xxtofl@arg+2,f
  2779  0D92  0DA5               	rlf	___xxtofl@arg+3,f
  2780  0D93  0BFA               	decfsz	??___xxtofl,f
  2781  0D94  2D8E               	goto	u3125
  2782  0D95                     l2258:	
  2783  0D95  1BA4               	btfsc	___xxtofl@arg+2,7
  2784  0D96  2D98               	goto	u3131
  2785  0D97  2D99               	goto	u3130
  2786  0D98                     u3131:	
  2787  0D98  2D9F               	goto	l664
  2788  0D99                     u3130:	
  2789  0D99                     l2260:	
  2790  0D99  3002               	movlw	2
  2791  0D9A  0221               	subwf	___xxtofl@exp,w
  2792  0D9B  1803               	skipnc
  2793  0D9C  2D9E               	goto	u3141
  2794  0D9D  2D9F               	goto	u3140
  2795  0D9E                     u3141:	
  2796  0D9E  2D8A               	goto	l2256
  2797  0D9F                     u3140:	
  2798  0D9F                     l664:	
  2799  0D9F  1821               	btfsc	___xxtofl@exp,0
  2800  0DA0  2DA2               	goto	u3151
  2801  0DA1  2DA3               	goto	u3150
  2802  0DA2                     u3151:	
  2803  0DA2  2DAB               	goto	l665
  2804  0DA3                     u3150:	
  2805  0DA3                     l2262:	
  2806  0DA3  30FF               	movlw	255
  2807  0DA4  05A2               	andwf	___xxtofl@arg,f
  2808  0DA5  30FF               	movlw	255
  2809  0DA6  05A3               	andwf	___xxtofl@arg+1,f
  2810  0DA7  307F               	movlw	127
  2811  0DA8  05A4               	andwf	___xxtofl@arg+2,f
  2812  0DA9  30FF               	movlw	255
  2813  0DAA  05A5               	andwf	___xxtofl@arg+3,f
  2814  0DAB                     l665:	
  2815  0DAB  1003               	clrc
  2816  0DAC  0CA1               	rrf	___xxtofl@exp,f
  2817  0DAD                     l2264:	
  2818  0DAD  0821               	movf	___xxtofl@exp,w
  2819  0DAE  00FA               	movwf	??___xxtofl
  2820  0DAF  01FB               	clrf	??___xxtofl+1
  2821  0DB0  01FC               	clrf	??___xxtofl+2
  2822  0DB1  01FD               	clrf	??___xxtofl+3
  2823  0DB2  3018               	movlw	24
  2824  0DB3                     u3165:	
  2825  0DB3  1003               	clrc
  2826  0DB4  0DFA               	rlf	??___xxtofl,f
  2827  0DB5  0DFB               	rlf	??___xxtofl+1,f
  2828  0DB6  0DFC               	rlf	??___xxtofl+2,f
  2829  0DB7  0DFD               	rlf	??___xxtofl+3,f
  2830  0DB8                     u3160:	
  2831  0DB8  3EFF               	addlw	-1
  2832  0DB9  1D03               	skipz
  2833  0DBA  2DB3               	goto	u3165
  2834  0DBB  087A               	movf	??___xxtofl,w
  2835  0DBC  04A2               	iorwf	___xxtofl@arg,f
  2836  0DBD  087B               	movf	??___xxtofl+1,w
  2837  0DBE  04A3               	iorwf	___xxtofl@arg+1,f
  2838  0DBF  087C               	movf	??___xxtofl+2,w
  2839  0DC0  04A4               	iorwf	___xxtofl@arg+2,f
  2840  0DC1  087D               	movf	??___xxtofl+3,w
  2841  0DC2  04A5               	iorwf	___xxtofl@arg+3,f
  2842  0DC3                     l2266:	
  2843  0DC3  0820               	movf	___xxtofl@sign,w
  2844  0DC4  1903               	btfsc	3,2
  2845  0DC5  2DC7               	goto	u3171
  2846  0DC6  2DC8               	goto	u3170
  2847  0DC7                     u3171:	
  2848  0DC7  2DCD               	goto	l2272
  2849  0DC8                     u3170:	
  2850  0DC8                     l2268:	
  2851  0DC8  1FF9               	btfss	___xxtofl@val+3,7
  2852  0DC9  2DCB               	goto	u3181
  2853  0DCA  2DCC               	goto	u3180
  2854  0DCB                     u3181:	
  2855  0DCB  2DCD               	goto	l2272
  2856  0DCC                     u3180:	
  2857  0DCC                     l2270:	
  2858  0DCC  17A5               	bsf	___xxtofl@arg+3,7
  2859  0DCD                     l2272:	
  2860  0DCD  0825               	movf	___xxtofl@arg+3,w
  2861  0DCE  00F9               	movwf	?___xxtofl+3
  2862  0DCF  0824               	movf	___xxtofl@arg+2,w
  2863  0DD0  00F8               	movwf	?___xxtofl+2
  2864  0DD1  0823               	movf	___xxtofl@arg+1,w
  2865  0DD2  00F7               	movwf	?___xxtofl+1
  2866  0DD3  0822               	movf	___xxtofl@arg,w
  2867  0DD4  00F6               	movwf	?___xxtofl
  2868  0DD5                     l653:	
  2869  0DD5  0008               	return
  2870  0DD6                     __end_of___xxtofl:	
  2871                           
  2872                           	psect	text17
  2873  0B03                     __ptext17:	
  2874 ;; *************** function ___wmul *****************
  2875 ;; Defined at:
  2876 ;;		line 15 in file "C:\Program Files (x86)\Microchip\xc8\v2.10\pic\sources\c90\common\Umul16.c"
  2877 ;; Parameters:    Size  Location     Type
  2878 ;;  multiplier      2    0[COMMON] unsigned int 
  2879 ;;  multiplicand    2    2[COMMON] unsigned int 
  2880 ;; Auto vars:     Size  Location     Type
  2881 ;;  product         2    4[COMMON] unsigned int 
  2882 ;; Return value:  Size  Location     Type
  2883 ;;                  2    0[COMMON] unsigned int 
  2884 ;; Registers used:
  2885 ;;		wreg, status,2, status,0
  2886 ;; Tracked objects:
  2887 ;;		On entry : 0/0
  2888 ;;		On exit  : 0/0
  2889 ;;		Unchanged: 0/0
  2890 ;; Data sizes:     COMMON   BANK0   BANK1   BANK3   BANK2
  2891 ;;      Params:         4       0       0       0       0
  2892 ;;      Locals:         2       0       0       0       0
  2893 ;;      Temps:          0       0       0       0       0
  2894 ;;      Totals:         6       0       0       0       0
  2895 ;;Total ram usage:        6 bytes
  2896 ;; Hardware stack levels used:    1
  2897 ;; This function calls:
  2898 ;;		Nothing
  2899 ;; This function is called by:
  2900 ;;		_main
  2901 ;; This function uses a non-reentrant model
  2902 ;;
  2903                           
  2904                           
  2905                           ;psect for function ___wmul
  2906  0B03                     ___wmul:	
  2907  0B03                     l1894:	
  2908                           ;incstack = 0
  2909                           ; Regs used in ___wmul: [wreg+status,2+status,0]
  2910                           
  2911  0B03  01F4               	clrf	___wmul@product
  2912  0B04  01F5               	clrf	___wmul@product+1
  2913  0B05                     l1896:	
  2914  0B05  1C70               	btfss	___wmul@multiplier,0
  2915  0B06  2B08               	goto	u2251
  2916  0B07  2B09               	goto	u2250
  2917  0B08                     u2251:	
  2918  0B08  2B0F               	goto	l224
  2919  0B09                     u2250:	
  2920  0B09                     l1898:	
  2921  0B09  0872               	movf	___wmul@multiplicand,w
  2922  0B0A  07F4               	addwf	___wmul@product,f
  2923  0B0B  1803               	skipnc
  2924  0B0C  0AF5               	incf	___wmul@product+1,f
  2925  0B0D  0873               	movf	___wmul@multiplicand+1,w
  2926  0B0E  07F5               	addwf	___wmul@product+1,f
  2927  0B0F                     l224:	
  2928  0B0F  3001               	movlw	1
  2929  0B10                     u2265:	
  2930  0B10  1003               	clrc
  2931  0B11  0DF2               	rlf	___wmul@multiplicand,f
  2932  0B12  0DF3               	rlf	___wmul@multiplicand+1,f
  2933  0B13  3EFF               	addlw	-1
  2934  0B14  1D03               	skipz
  2935  0B15  2B10               	goto	u2265
  2936  0B16                     l1900:	
  2937  0B16  3001               	movlw	1
  2938  0B17                     u2275:	
  2939  0B17  1003               	clrc
  2940  0B18  0CF1               	rrf	___wmul@multiplier+1,f
  2941  0B19  0CF0               	rrf	___wmul@multiplier,f
  2942  0B1A  3EFF               	addlw	-1
  2943  0B1B  1D03               	skipz
  2944  0B1C  2B17               	goto	u2275
  2945  0B1D                     l1902:	
  2946  0B1D  0870               	movf	___wmul@multiplier,w
  2947  0B1E  0471               	iorwf	___wmul@multiplier+1,w
  2948  0B1F  1D03               	btfss	3,2
  2949  0B20  2B22               	goto	u2281
  2950  0B21  2B23               	goto	u2280
  2951  0B22                     u2281:	
  2952  0B22  2B05               	goto	l1896
  2953  0B23                     u2280:	
  2954  0B23                     l1904:	
  2955  0B23  0875               	movf	___wmul@product+1,w
  2956  0B24  00F1               	movwf	?___wmul+1
  2957  0B25  0874               	movf	___wmul@product,w
  2958  0B26  00F0               	movwf	?___wmul
  2959  0B27                     l226:	
  2960  0B27  0008               	return
  2961  0B28                     __end_of___wmul:	
  2962                           
  2963                           	psect	text18
  2964  0C9E                     __ptext18:	
  2965 ;; *************** function ___fltol *****************
  2966 ;; Defined at:
  2967 ;;		line 43 in file "C:\Program Files (x86)\Microchip\xc8\v2.10\pic\sources\c90\common\fltol.c"
  2968 ;; Parameters:    Size  Location     Type
  2969 ;;  f1              4   47[BANK0 ] unsigned int 
  2970 ;; Auto vars:     Size  Location     Type
  2971 ;;  exp1            1   57[BANK0 ] unsigned char 
  2972 ;;  sign1           1   56[BANK0 ] unsigned char 
  2973 ;; Return value:  Size  Location     Type
  2974 ;;                  4   47[BANK0 ] long 
  2975 ;; Registers used:
  2976 ;;		wreg, status,2, status,0
  2977 ;; Tracked objects:
  2978 ;;		On entry : 0/0
  2979 ;;		On exit  : 0/0
  2980 ;;		Unchanged: 0/0
  2981 ;; Data sizes:     COMMON   BANK0   BANK1   BANK3   BANK2
  2982 ;;      Params:         0       4       0       0       0
  2983 ;;      Locals:         0       2       0       0       0
  2984 ;;      Temps:          0       5       0       0       0
  2985 ;;      Totals:         0      11       0       0       0
  2986 ;;Total ram usage:       11 bytes
  2987 ;; Hardware stack levels used:    1
  2988 ;; This function calls:
  2989 ;;		Nothing
  2990 ;; This function is called by:
  2991 ;;		_main
  2992 ;; This function uses a non-reentrant model
  2993 ;;
  2994                           
  2995                           
  2996                           ;psect for function ___fltol
  2997  0C9E                     ___fltol:	
  2998  0C9E                     l1908:	
  2999                           ;incstack = 0
  3000                           ; Regs used in ___fltol: [wreg+status,2+status,0]
  3001                           
  3002  0C9E  1003               	clrc
  3003  0C9F  1283               	bcf	3,5	;RP0=0, select bank0
  3004  0CA0  1303               	bcf	3,6	;RP1=0, select bank0
  3005  0CA1  0D51               	rlf	___fltol@f1+2,w
  3006  0CA2  0D52               	rlf	___fltol@f1+3,w
  3007  0CA3  00D3               	movwf	??___fltol
  3008  0CA4  0853               	movf	??___fltol,w
  3009  0CA5  00D9               	movwf	___fltol@exp1
  3010  0CA6  0859               	movf	___fltol@exp1,w
  3011  0CA7  1D03               	btfss	3,2
  3012  0CA8  2CAA               	goto	u2291
  3013  0CA9  2CAB               	goto	u2290
  3014  0CAA                     u2291:	
  3015  0CAA  2CB4               	goto	l1914
  3016  0CAB                     u2290:	
  3017  0CAB                     l1910:	
  3018  0CAB  3000               	movlw	0
  3019  0CAC  00D2               	movwf	?___fltol+3
  3020  0CAD  3000               	movlw	0
  3021  0CAE  00D1               	movwf	?___fltol+2
  3022  0CAF  3000               	movlw	0
  3023  0CB0  00D0               	movwf	?___fltol+1
  3024  0CB1  3000               	movlw	0
  3025  0CB2  00CF               	movwf	?___fltol
  3026  0CB3  2D19               	goto	l410
  3027  0CB4                     l1914:	
  3028  0CB4  084F               	movf	___fltol@f1,w
  3029  0CB5  00D3               	movwf	??___fltol
  3030  0CB6  0850               	movf	___fltol@f1+1,w
  3031  0CB7  00D4               	movwf	??___fltol+1
  3032  0CB8  0851               	movf	___fltol@f1+2,w
  3033  0CB9  00D5               	movwf	??___fltol+2
  3034  0CBA  0852               	movf	___fltol@f1+3,w
  3035  0CBB  00D6               	movwf	??___fltol+3
  3036  0CBC  301F               	movlw	31
  3037  0CBD                     u2305:	
  3038  0CBD  1003               	clrc
  3039  0CBE  0CD6               	rrf	??___fltol+3,f
  3040  0CBF  0CD5               	rrf	??___fltol+2,f
  3041  0CC0  0CD4               	rrf	??___fltol+1,f
  3042  0CC1  0CD3               	rrf	??___fltol,f
  3043  0CC2                     u2300:	
  3044  0CC2  3EFF               	addlw	-1
  3045  0CC3  1D03               	skipz
  3046  0CC4  2CBD               	goto	u2305
  3047  0CC5  0853               	movf	??___fltol,w
  3048  0CC6  00D7               	movwf	??___fltol+4
  3049  0CC7  0857               	movf	??___fltol+4,w
  3050  0CC8  00D8               	movwf	___fltol@sign1
  3051  0CC9                     l1916:	
  3052  0CC9  17D1               	bsf	___fltol@f1+2,7
  3053  0CCA                     l1918:	
  3054  0CCA  30FF               	movlw	255
  3055  0CCB  05CF               	andwf	___fltol@f1,f
  3056  0CCC  30FF               	movlw	255
  3057  0CCD  05D0               	andwf	___fltol@f1+1,f
  3058  0CCE  30FF               	movlw	255
  3059  0CCF  05D1               	andwf	___fltol@f1+2,f
  3060  0CD0  3000               	movlw	0
  3061  0CD1  05D2               	andwf	___fltol@f1+3,f
  3062  0CD2                     l1920:	
  3063  0CD2  3096               	movlw	150
  3064  0CD3  02D9               	subwf	___fltol@exp1,f
  3065  0CD4                     l1922:	
  3066  0CD4  1FD9               	btfss	___fltol@exp1,7
  3067  0CD5  2CD7               	goto	u2311
  3068  0CD6  2CD8               	goto	u2310
  3069  0CD7                     u2311:	
  3070  0CD7  2CF2               	goto	l1932
  3071  0CD8                     u2310:	
  3072  0CD8                     l1924:	
  3073  0CD8  0859               	movf	___fltol@exp1,w
  3074  0CD9  3A80               	xorlw	128
  3075  0CDA  3E97               	addlw	151
  3076  0CDB  1803               	skipnc
  3077  0CDC  2CDE               	goto	u2321
  3078  0CDD  2CDF               	goto	u2320
  3079  0CDE                     u2321:	
  3080  0CDE  2CE0               	goto	l1930
  3081  0CDF                     u2320:	
  3082  0CDF  2CAB               	goto	l1910
  3083  0CE0                     l1930:	
  3084  0CE0  3001               	movlw	1
  3085  0CE1                     u2335:	
  3086  0CE1  1003               	clrc
  3087  0CE2  0CD2               	rrf	___fltol@f1+3,f
  3088  0CE3  0CD1               	rrf	___fltol@f1+2,f
  3089  0CE4  0CD0               	rrf	___fltol@f1+1,f
  3090  0CE5  0CCF               	rrf	___fltol@f1,f
  3091  0CE6  3EFF               	addlw	-1
  3092  0CE7  1D03               	skipz
  3093  0CE8  2CE1               	goto	u2335
  3094  0CE9  3001               	movlw	1
  3095  0CEA  00D3               	movwf	??___fltol
  3096  0CEB  0853               	movf	??___fltol,w
  3097  0CEC  07D9               	addwf	___fltol@exp1,f
  3098  0CED  1D03               	btfss	3,2
  3099  0CEE  2CF0               	goto	u2341
  3100  0CEF  2CF1               	goto	u2340
  3101  0CF0                     u2341:	
  3102  0CF0  2CE0               	goto	l1930
  3103  0CF1                     u2340:	
  3104  0CF1  2D09               	goto	l1940
  3105  0CF2                     l1932:	
  3106  0CF2  3020               	movlw	32
  3107  0CF3  0259               	subwf	___fltol@exp1,w
  3108  0CF4  1C03               	skipc
  3109  0CF5  2CF7               	goto	u2351
  3110  0CF6  2CF8               	goto	u2350
  3111  0CF7                     u2351:	
  3112  0CF7  2D04               	goto	l417
  3113  0CF8                     u2350:	
  3114  0CF8  2CAB               	goto	l1910
  3115  0CF9                     l1938:	
  3116  0CF9  3001               	movlw	1
  3117  0CFA  00D3               	movwf	??___fltol
  3118  0CFB                     u2365:	
  3119  0CFB  1003               	clrc
  3120  0CFC  0DCF               	rlf	___fltol@f1,f
  3121  0CFD  0DD0               	rlf	___fltol@f1+1,f
  3122  0CFE  0DD1               	rlf	___fltol@f1+2,f
  3123  0CFF  0DD2               	rlf	___fltol@f1+3,f
  3124  0D00  0BD3               	decfsz	??___fltol,f
  3125  0D01  2CFB               	goto	u2365
  3126  0D02  3001               	movlw	1
  3127  0D03  02D9               	subwf	___fltol@exp1,f
  3128  0D04                     l417:	
  3129  0D04  0859               	movf	___fltol@exp1,w
  3130  0D05  1D03               	btfss	3,2
  3131  0D06  2D08               	goto	u2371
  3132  0D07  2D09               	goto	u2370
  3133  0D08                     u2371:	
  3134  0D08  2CF9               	goto	l1938
  3135  0D09                     u2370:	
  3136  0D09                     l1940:	
  3137  0D09  0858               	movf	___fltol@sign1,w
  3138  0D0A  1903               	btfsc	3,2
  3139  0D0B  2D0D               	goto	u2381
  3140  0D0C  2D0E               	goto	u2380
  3141  0D0D                     u2381:	
  3142  0D0D  2D19               	goto	l420
  3143  0D0E                     u2380:	
  3144  0D0E                     l1942:	
  3145  0D0E  09CF               	comf	___fltol@f1,f
  3146  0D0F  09D0               	comf	___fltol@f1+1,f
  3147  0D10  09D1               	comf	___fltol@f1+2,f
  3148  0D11  09D2               	comf	___fltol@f1+3,f
  3149  0D12  0ACF               	incf	___fltol@f1,f
  3150  0D13  1903               	skipnz
  3151  0D14  0AD0               	incf	___fltol@f1+1,f
  3152  0D15  1903               	skipnz
  3153  0D16  0AD1               	incf	___fltol@f1+2,f
  3154  0D17  1903               	skipnz
  3155  0D18  0AD2               	incf	___fltol@f1+3,f
  3156  0D19                     l420:	
  3157  0D19                     l410:	
  3158  0D19  0008               	return
  3159  0D1A                     __end_of___fltol:	
  3160                           
  3161                           	psect	text19
  3162  0ADF                     __ptext19:	
  3163 ;; *************** function ___flsub *****************
  3164 ;; Defined at:
  3165 ;;		line 242 in file "C:\Program Files (x86)\Microchip\xc8\v2.10\pic\sources\c90\common\sprcadd.c"
  3166 ;; Parameters:    Size  Location     Type
  3167 ;;  a               4    8[BANK0 ] long 
  3168 ;;  b               4   12[BANK0 ] long 
  3169 ;; Auto vars:     Size  Location     Type
  3170 ;;		None
  3171 ;; Return value:  Size  Location     Type
  3172 ;;                  4    8[BANK0 ] long 
  3173 ;; Registers used:
  3174 ;;		wreg, status,2, status,0, btemp+1, pclath, cstack
  3175 ;; Tracked objects:
  3176 ;;		On entry : 0/0
  3177 ;;		On exit  : 0/0
  3178 ;;		Unchanged: 0/0
  3179 ;; Data sizes:     COMMON   BANK0   BANK1   BANK3   BANK2
  3180 ;;      Params:         0       8       0       0       0
  3181 ;;      Locals:         0       0       0       0       0
  3182 ;;      Temps:          0       0       0       0       0
  3183 ;;      Totals:         0       8       0       0       0
  3184 ;;Total ram usage:        8 bytes
  3185 ;; Hardware stack levels used:    1
  3186 ;; Hardware stack levels required when called:    1
  3187 ;; This function calls:
  3188 ;;		___fladd
  3189 ;; This function is called by:
  3190 ;;		_main
  3191 ;; This function uses a non-reentrant model
  3192 ;;
  3193                           
  3194                           
  3195                           ;psect for function ___flsub
  3196  0ADF                     ___flsub:	
  3197  0ADF                     l1944:	
  3198                           ;incstack = 0
  3199                           ; Regs used in ___flsub: [wreg+status,2+status,0+btemp+1+pclath+cstack]
  3200                           
  3201  0ADF  3080               	movlw	128
  3202  0AE0  1283               	bcf	3,5	;RP0=0, select bank0
  3203  0AE1  1303               	bcf	3,6	;RP1=0, select bank0
  3204  0AE2  06AB               	xorwf	___flsub@a+3,f
  3205  0AE3                     l1946:	
  3206  0AE3  082F               	movf	___flsub@b+3,w
  3207  0AE4  00F3               	movwf	___fladd@b+3
  3208  0AE5  082E               	movf	___flsub@b+2,w
  3209  0AE6  00F2               	movwf	___fladd@b+2
  3210  0AE7  082D               	movf	___flsub@b+1,w
  3211  0AE8  00F1               	movwf	___fladd@b+1
  3212  0AE9  082C               	movf	___flsub@b,w
  3213  0AEA  00F0               	movwf	___fladd@b
  3214  0AEB  082B               	movf	___flsub@a+3,w
  3215  0AEC  00F7               	movwf	___fladd@a+3
  3216  0AED  082A               	movf	___flsub@a+2,w
  3217  0AEE  00F6               	movwf	___fladd@a+2
  3218  0AEF  0829               	movf	___flsub@a+1,w
  3219  0AF0  00F5               	movwf	___fladd@a+1
  3220  0AF1  0828               	movf	___flsub@a,w
  3221  0AF2  00F4               	movwf	___fladd@a
  3222  0AF3  120A  118A  21F7  120A  158A  	fcall	___fladd
  3223  0AF8  0873               	movf	?___fladd+3,w
  3224  0AF9  1283               	bcf	3,5	;RP0=0, select bank0
  3225  0AFA  1303               	bcf	3,6	;RP1=0, select bank0
  3226  0AFB  00AB               	movwf	?___flsub+3
  3227  0AFC  0872               	movf	?___fladd+2,w
  3228  0AFD  00AA               	movwf	?___flsub+2
  3229  0AFE  0871               	movf	?___fladd+1,w
  3230  0AFF  00A9               	movwf	?___flsub+1
  3231  0B00  0870               	movf	?___fladd,w
  3232  0B01  00A8               	movwf	?___flsub
  3233  0B02                     l563:	
  3234  0B02  0008               	return
  3235  0B03                     __end_of___flsub:	
  3236                           
  3237                           	psect	text20
  3238  01F7                     __ptext20:	
  3239 ;; *************** function ___fladd *****************
  3240 ;; Defined at:
  3241 ;;		line 10 in file "C:\Program Files (x86)\Microchip\xc8\v2.10\pic\sources\c90\common\sprcadd.c"
  3242 ;; Parameters:    Size  Location     Type
  3243 ;;  b               4    0[COMMON] long 
  3244 ;;  a               4    4[COMMON] long 
  3245 ;; Auto vars:     Size  Location     Type
  3246 ;;  grs             1   11[COMMON] unsigned char 
  3247 ;;  bexp            1   10[COMMON] unsigned char 
  3248 ;;  aexp            1    9[COMMON] unsigned char 
  3249 ;;  signs           1    8[COMMON] unsigned char 
  3250 ;; Return value:  Size  Location     Type
  3251 ;;                  4    0[COMMON] unsigned char 
  3252 ;; Registers used:
  3253 ;;		wreg, status,2, status,0, btemp+1
  3254 ;; Tracked objects:
  3255 ;;		On entry : 0/0
  3256 ;;		On exit  : 0/0
  3257 ;;		Unchanged: 0/0
  3258 ;; Data sizes:     COMMON   BANK0   BANK1   BANK3   BANK2
  3259 ;;      Params:         8       0       0       0       0
  3260 ;;      Locals:         4       0       0       0       0
  3261 ;;      Temps:          0       8       0       0       0
  3262 ;;      Totals:        12       8       0       0       0
  3263 ;;Total ram usage:       20 bytes
  3264 ;; Hardware stack levels used:    1
  3265 ;; This function calls:
  3266 ;;		Nothing
  3267 ;; This function is called by:
  3268 ;;		___flsub
  3269 ;; This function uses a non-reentrant model
  3270 ;;
  3271                           
  3272                           
  3273                           ;psect for function ___fladd
  3274  01F7                     ___fladd:	
  3275  01F7                     l1594:	
  3276                           ;incstack = 0
  3277                           ; Regs used in ___fladd: [wreg+status,2+status,0+btemp+1]
  3278                           
  3279  01F7  0873               	movf	___fladd@b+3,w
  3280  01F8  3980               	andlw	128
  3281  01F9  1283               	bcf	3,5	;RP0=0, select bank0
  3282  01FA  1303               	bcf	3,6	;RP1=0, select bank0
  3283  01FB  00A0               	movwf	??___fladd
  3284  01FC  0820               	movf	??___fladd,w
  3285  01FD  00F8               	movwf	___fladd@signs
  3286  01FE                     l1596:	
  3287  01FE  0873               	movf	___fladd@b+3,w
  3288  01FF  00A0               	movwf	??___fladd
  3289  0200  0720               	addwf	??___fladd,w
  3290  0201  00A1               	movwf	??___fladd+1
  3291  0202  0821               	movf	??___fladd+1,w
  3292  0203  00FA               	movwf	___fladd@bexp
  3293  0204                     l1598:	
  3294  0204  1FF2               	btfss	___fladd@b+2,7
  3295  0205  2A07               	goto	u1701
  3296  0206  2A08               	goto	u1700
  3297  0207                     u1701:	
  3298  0207  2A09               	goto	l1602
  3299  0208                     u1700:	
  3300  0208                     l1600:	
  3301  0208  147A               	bsf	___fladd@bexp,0
  3302  0209                     l1602:	
  3303  0209  087A               	movf	___fladd@bexp,w
  3304  020A  1903               	btfsc	3,2
  3305  020B  2A0D               	goto	u1711
  3306  020C  2A0E               	goto	u1710
  3307  020D                     u1711:	
  3308  020D  2A1E               	goto	l1612
  3309  020E                     u1710:	
  3310  020E                     l1604:	
  3311  020E  0A7A               	incf	___fladd@bexp,w
  3312  020F  1D03               	btfss	3,2
  3313  0210  2A12               	goto	u1721
  3314  0211  2A13               	goto	u1720
  3315  0212                     u1721:	
  3316  0212  2A1B               	goto	l1608
  3317  0213                     u1720:	
  3318  0213                     l1606:	
  3319  0213  3000               	movlw	0
  3320  0214  00F3               	movwf	___fladd@b+3
  3321  0215  3000               	movlw	0
  3322  0216  00F2               	movwf	___fladd@b+2
  3323  0217  3000               	movlw	0
  3324  0218  00F1               	movwf	___fladd@b+1
  3325  0219  3000               	movlw	0
  3326  021A  00F0               	movwf	___fladd@b
  3327  021B                     l1608:	
  3328  021B  17F2               	bsf	___fladd@b+2,7
  3329  021C                     l1610:	
  3330  021C  01F3               	clrf	___fladd@b+3
  3331  021D  2A26               	goto	l1614
  3332  021E                     l1612:	
  3333  021E  3000               	movlw	0
  3334  021F  00F3               	movwf	___fladd@b+3
  3335  0220  3000               	movlw	0
  3336  0221  00F2               	movwf	___fladd@b+2
  3337  0222  3000               	movlw	0
  3338  0223  00F1               	movwf	___fladd@b+1
  3339  0224  3000               	movlw	0
  3340  0225  00F0               	movwf	___fladd@b
  3341  0226                     l1614:	
  3342  0226  0877               	movf	___fladd@a+3,w
  3343  0227  3980               	andlw	128
  3344  0228  00A0               	movwf	??___fladd
  3345  0229  0820               	movf	??___fladd,w
  3346  022A  00F9               	movwf	___fladd@aexp
  3347  022B                     l1616:	
  3348  022B  0879               	movf	___fladd@aexp,w
  3349  022C  0678               	xorwf	___fladd@signs,w
  3350  022D  1903               	skipnz
  3351  022E  2A30               	goto	u1731
  3352  022F  2A31               	goto	u1730
  3353  0230                     u1731:	
  3354  0230  2A32               	goto	l1620
  3355  0231                     u1730:	
  3356  0231                     l1618:	
  3357  0231  1778               	bsf	___fladd@signs,6
  3358  0232                     l1620:	
  3359  0232  0877               	movf	___fladd@a+3,w
  3360  0233  00A0               	movwf	??___fladd
  3361  0234  0720               	addwf	??___fladd,w
  3362  0235  00A1               	movwf	??___fladd+1
  3363  0236  0821               	movf	??___fladd+1,w
  3364  0237  00F9               	movwf	___fladd@aexp
  3365  0238                     l1622:	
  3366  0238  1FF6               	btfss	___fladd@a+2,7
  3367  0239  2A3B               	goto	u1741
  3368  023A  2A3C               	goto	u1740
  3369  023B                     u1741:	
  3370  023B  2A3D               	goto	l1626
  3371  023C                     u1740:	
  3372  023C                     l1624:	
  3373  023C  1479               	bsf	___fladd@aexp,0
  3374  023D                     l1626:	
  3375  023D  0879               	movf	___fladd@aexp,w
  3376  023E  1903               	btfsc	3,2
  3377  023F  2A41               	goto	u1751
  3378  0240  2A42               	goto	u1750
  3379  0241                     u1751:	
  3380  0241  2A52               	goto	l1636
  3381  0242                     u1750:	
  3382  0242                     l1628:	
  3383  0242  0A79               	incf	___fladd@aexp,w
  3384  0243  1D03               	btfss	3,2
  3385  0244  2A46               	goto	u1761
  3386  0245  2A47               	goto	u1760
  3387  0246                     u1761:	
  3388  0246  2A4F               	goto	l1632
  3389  0247                     u1760:	
  3390  0247                     l1630:	
  3391  0247  3000               	movlw	0
  3392  0248  00F7               	movwf	___fladd@a+3
  3393  0249  3000               	movlw	0
  3394  024A  00F6               	movwf	___fladd@a+2
  3395  024B  3000               	movlw	0
  3396  024C  00F5               	movwf	___fladd@a+1
  3397  024D  3000               	movlw	0
  3398  024E  00F4               	movwf	___fladd@a
  3399  024F                     l1632:	
  3400  024F  17F6               	bsf	___fladd@a+2,7
  3401  0250                     l1634:	
  3402  0250  01F7               	clrf	___fladd@a+3
  3403  0251  2A5A               	goto	l517
  3404  0252                     l1636:	
  3405  0252  3000               	movlw	0
  3406  0253  00F7               	movwf	___fladd@a+3
  3407  0254  3000               	movlw	0
  3408  0255  00F6               	movwf	___fladd@a+2
  3409  0256  3000               	movlw	0
  3410  0257  00F5               	movwf	___fladd@a+1
  3411  0258  3000               	movlw	0
  3412  0259  00F4               	movwf	___fladd@a
  3413  025A                     l517:	
  3414  025A  087A               	movf	___fladd@bexp,w
  3415  025B  0279               	subwf	___fladd@aexp,w
  3416  025C  1803               	skipnc
  3417  025D  2A5F               	goto	u1771
  3418  025E  2A60               	goto	u1770
  3419  025F                     u1771:	
  3420  025F  2AA4               	goto	l1672
  3421  0260                     u1770:	
  3422  0260                     l1638:	
  3423  0260  1F78               	btfss	___fladd@signs,6
  3424  0261  2A63               	goto	u1781
  3425  0262  2A64               	goto	u1780
  3426  0263                     u1781:	
  3427  0263  2A68               	goto	l1642
  3428  0264                     u1780:	
  3429  0264                     l1640:	
  3430  0264  3080               	movlw	128
  3431  0265  00A0               	movwf	??___fladd
  3432  0266  0820               	movf	??___fladd,w
  3433  0267  06F8               	xorwf	___fladd@signs,f
  3434  0268                     l1642:	
  3435  0268  087A               	movf	___fladd@bexp,w
  3436  0269  00A0               	movwf	??___fladd
  3437  026A  0820               	movf	??___fladd,w
  3438  026B  00FB               	movwf	___fladd@grs
  3439  026C                     l1644:	
  3440  026C  0879               	movf	___fladd@aexp,w
  3441  026D  00A0               	movwf	??___fladd
  3442  026E  0820               	movf	??___fladd,w
  3443  026F  00FA               	movwf	___fladd@bexp
  3444  0270                     l1646:	
  3445  0270  087B               	movf	___fladd@grs,w
  3446  0271  00A0               	movwf	??___fladd
  3447  0272  0820               	movf	??___fladd,w
  3448  0273  00F9               	movwf	___fladd@aexp
  3449  0274                     l1648:	
  3450  0274  0870               	movf	___fladd@b,w
  3451  0275  00A0               	movwf	??___fladd
  3452  0276  0820               	movf	??___fladd,w
  3453  0277  00FB               	movwf	___fladd@grs
  3454  0278                     l1650:	
  3455  0278  0874               	movf	___fladd@a,w
  3456  0279  00A0               	movwf	??___fladd
  3457  027A  0820               	movf	??___fladd,w
  3458  027B  00F0               	movwf	___fladd@b
  3459  027C                     l1652:	
  3460  027C  087B               	movf	___fladd@grs,w
  3461  027D  00A0               	movwf	??___fladd
  3462  027E  0820               	movf	??___fladd,w
  3463  027F  00F4               	movwf	___fladd@a
  3464  0280                     l1654:	
  3465  0280  0871               	movf	___fladd@b+1,w
  3466  0281  00A0               	movwf	??___fladd
  3467  0282  0820               	movf	??___fladd,w
  3468  0283  00FB               	movwf	___fladd@grs
  3469  0284                     l1656:	
  3470  0284  0875               	movf	___fladd@a+1,w
  3471  0285  00A0               	movwf	??___fladd
  3472  0286  0820               	movf	??___fladd,w
  3473  0287  00F1               	movwf	___fladd@b+1
  3474  0288                     l1658:	
  3475  0288  087B               	movf	___fladd@grs,w
  3476  0289  00A0               	movwf	??___fladd
  3477  028A  0820               	movf	??___fladd,w
  3478  028B  00F5               	movwf	___fladd@a+1
  3479  028C                     l1660:	
  3480  028C  0872               	movf	___fladd@b+2,w
  3481  028D  00A0               	movwf	??___fladd
  3482  028E  0820               	movf	??___fladd,w
  3483  028F  00FB               	movwf	___fladd@grs
  3484  0290                     l1662:	
  3485  0290  0876               	movf	___fladd@a+2,w
  3486  0291  00A0               	movwf	??___fladd
  3487  0292  0820               	movf	??___fladd,w
  3488  0293  00F2               	movwf	___fladd@b+2
  3489  0294                     l1664:	
  3490  0294  087B               	movf	___fladd@grs,w
  3491  0295  00A0               	movwf	??___fladd
  3492  0296  0820               	movf	??___fladd,w
  3493  0297  00F6               	movwf	___fladd@a+2
  3494  0298                     l1666:	
  3495  0298  0873               	movf	___fladd@b+3,w
  3496  0299  00A0               	movwf	??___fladd
  3497  029A  0820               	movf	??___fladd,w
  3498  029B  00FB               	movwf	___fladd@grs
  3499  029C                     l1668:	
  3500  029C  0877               	movf	___fladd@a+3,w
  3501  029D  00A0               	movwf	??___fladd
  3502  029E  0820               	movf	??___fladd,w
  3503  029F  00F3               	movwf	___fladd@b+3
  3504  02A0                     l1670:	
  3505  02A0  087B               	movf	___fladd@grs,w
  3506  02A1  00A0               	movwf	??___fladd
  3507  02A2  0820               	movf	??___fladd,w
  3508  02A3  00F7               	movwf	___fladd@a+3
  3509  02A4                     l1672:	
  3510  02A4  01FB               	clrf	___fladd@grs
  3511  02A5                     l1674:	
  3512  02A5  0879               	movf	___fladd@aexp,w
  3513  02A6  00A0               	movwf	??___fladd
  3514  02A7  01A1               	clrf	??___fladd+1
  3515  02A8  0821               	movf	??___fladd+1,w
  3516  02A9  00A3               	movwf	??___fladd+3
  3517  02AA  087A               	movf	___fladd@bexp,w
  3518  02AB  0220               	subwf	??___fladd,w
  3519  02AC  00A2               	movwf	??___fladd+2
  3520  02AD  1C03               	skipc
  3521  02AE  03A3               	decf	??___fladd+3,f
  3522  02AF  0823               	movf	??___fladd+3,w
  3523  02B0  3A80               	xorlw	128
  3524  02B1  00FF               	movwf	btemp+1
  3525  02B2  3080               	movlw	128
  3526  02B3  027F               	subwf	btemp+1,w
  3527  02B4  1D03               	skipz
  3528  02B5  2AB8               	goto	u1795
  3529  02B6  301A               	movlw	26
  3530  02B7  0222               	subwf	??___fladd+2,w
  3531  02B8                     u1795:	
  3532  02B8  1C03               	skipc
  3533  02B9  2ABB               	goto	u1791
  3534  02BA  2ABC               	goto	u1790
  3535  02BB                     u1791:	
  3536  02BB  2AFD               	goto	l1690
  3537  02BC                     u1790:	
  3538  02BC                     l1676:	
  3539  02BC  0873               	movf	___fladd@b+3,w
  3540  02BD  0472               	iorwf	___fladd@b+2,w
  3541  02BE  0471               	iorwf	___fladd@b+1,w
  3542  02BF  0470               	iorwf	___fladd@b,w
  3543  02C0  1D03               	skipz
  3544  02C1  2AC3               	goto	u1801
  3545  02C2  2AC5               	goto	u1800
  3546  02C3                     u1801:	
  3547  02C3  3001               	movlw	1
  3548  02C4  2AC6               	goto	u1810
  3549  02C5                     u1800:	
  3550  02C5  3000               	movlw	0
  3551  02C6                     u1810:	
  3552  02C6  1283               	bcf	3,5	;RP0=0, select bank0
  3553  02C7  1303               	bcf	3,6	;RP1=0, select bank0
  3554  02C8  00A0               	movwf	??___fladd
  3555  02C9  0820               	movf	??___fladd,w
  3556  02CA  00FB               	movwf	___fladd@grs
  3557  02CB  3000               	movlw	0
  3558  02CC  00F3               	movwf	___fladd@b+3
  3559  02CD  3000               	movlw	0
  3560  02CE  00F2               	movwf	___fladd@b+2
  3561  02CF  3000               	movlw	0
  3562  02D0  00F1               	movwf	___fladd@b+1
  3563  02D1  3000               	movlw	0
  3564  02D2  00F0               	movwf	___fladd@b
  3565  02D3  0879               	movf	___fladd@aexp,w
  3566  02D4  00A0               	movwf	??___fladd
  3567  02D5  0820               	movf	??___fladd,w
  3568  02D6  00FA               	movwf	___fladd@bexp
  3569  02D7  2B03               	goto	l521
  3570  02D8                     l523:	
  3571  02D8  1C7B               	btfss	___fladd@grs,0
  3572  02D9  2ADB               	goto	u1821
  3573  02DA  2ADC               	goto	u1820
  3574  02DB                     u1821:	
  3575  02DB  2AE7               	goto	l1680
  3576  02DC                     u1820:	
  3577  02DC                     l1678:	
  3578  02DC  087B               	movf	___fladd@grs,w
  3579  02DD  1283               	bcf	3,5	;RP0=0, select bank0
  3580  02DE  1303               	bcf	3,6	;RP1=0, select bank0
  3581  02DF  00A0               	movwf	??___fladd
  3582  02E0  1003               	clrc
  3583  02E1  0C20               	rrf	??___fladd,w
  3584  02E2  3801               	iorlw	1
  3585  02E3  00A1               	movwf	??___fladd+1
  3586  02E4  0821               	movf	??___fladd+1,w
  3587  02E5  00FB               	movwf	___fladd@grs
  3588  02E6  2AE9               	goto	l1682
  3589  02E7                     l1680:	
  3590  02E7  1003               	clrc
  3591  02E8  0CFB               	rrf	___fladd@grs,f
  3592  02E9                     l1682:	
  3593  02E9  1C70               	btfss	___fladd@b,0
  3594  02EA  2AEC               	goto	u1831
  3595  02EB  2AED               	goto	u1830
  3596  02EC                     u1831:	
  3597  02EC  2AEE               	goto	l1686
  3598  02ED                     u1830:	
  3599  02ED                     l1684:	
  3600  02ED  17FB               	bsf	___fladd@grs,7
  3601  02EE                     l1686:	
  3602  02EE  3001               	movlw	1
  3603  02EF  1283               	bcf	3,5	;RP0=0, select bank0
  3604  02F0  1303               	bcf	3,6	;RP1=0, select bank0
  3605  02F1  00A0               	movwf	??___fladd
  3606  02F2                     u1845:	
  3607  02F2  0D73               	rlf	___fladd@b+3,w
  3608  02F3  0CF3               	rrf	___fladd@b+3,f
  3609  02F4  0CF2               	rrf	___fladd@b+2,f
  3610  02F5  0CF1               	rrf	___fladd@b+1,f
  3611  02F6  0CF0               	rrf	___fladd@b,f
  3612  02F7  0BA0               	decfsz	??___fladd& (0+127),f
  3613  02F8  2AF2               	goto	u1845
  3614  02F9                     l1688:	
  3615  02F9  3001               	movlw	1
  3616  02FA  00A0               	movwf	??___fladd
  3617  02FB  0820               	movf	??___fladd,w
  3618  02FC  07FA               	addwf	___fladd@bexp,f
  3619  02FD                     l1690:	
  3620  02FD  0879               	movf	___fladd@aexp,w
  3621  02FE  027A               	subwf	___fladd@bexp,w
  3622  02FF  1C03               	skipc
  3623  0300  2B02               	goto	u1851
  3624  0301  2B03               	goto	u1850
  3625  0302                     u1851:	
  3626  0302  2AD8               	goto	l523
  3627  0303                     u1850:	
  3628  0303                     l521:	
  3629  0303  1B78               	btfsc	___fladd@signs,6
  3630  0304  2B06               	goto	u1861
  3631  0305  2B07               	goto	u1860
  3632  0306                     u1861:	
  3633  0306  2B56               	goto	l1716
  3634  0307                     u1860:	
  3635  0307                     l1692:	
  3636  0307  087A               	movf	___fladd@bexp,w
  3637  0308  1D03               	btfss	3,2
  3638  0309  2B0B               	goto	u1871
  3639  030A  2B0C               	goto	u1870
  3640  030B                     u1871:	
  3641  030B  2B15               	goto	l1698
  3642  030C                     u1870:	
  3643  030C                     l1694:	
  3644  030C  3000               	movlw	0
  3645  030D  00F3               	movwf	?___fladd+3
  3646  030E  3000               	movlw	0
  3647  030F  00F2               	movwf	?___fladd+2
  3648  0310  3000               	movlw	0
  3649  0311  00F1               	movwf	?___fladd+1
  3650  0312  3000               	movlw	0
  3651  0313  00F0               	movwf	?___fladd
  3652  0314  2C8E               	goto	l530
  3653  0315                     l1698:	
  3654  0315  0874               	movf	___fladd@a,w
  3655  0316  07F0               	addwf	___fladd@b,f
  3656  0317  0875               	movf	___fladd@a+1,w
  3657  0318  1103               	clrz
  3658  0319  1803               	skipnc
  3659  031A  3E01               	addlw	1
  3660  031B  1903               	skipnz
  3661  031C  2B1E               	goto	u1881
  3662  031D  07F1               	addwf	___fladd@b+1,f
  3663  031E                     u1881:	
  3664  031E  0876               	movf	___fladd@a+2,w
  3665  031F  1103               	clrz
  3666  0320  1803               	skipnc
  3667  0321  3E01               	addlw	1
  3668  0322  1903               	skipnz
  3669  0323  2B25               	goto	u1882
  3670  0324  07F2               	addwf	___fladd@b+2,f
  3671  0325                     u1882:	
  3672  0325  0877               	movf	___fladd@a+3,w
  3673  0326  1103               	clrz
  3674  0327  1803               	skipnc
  3675  0328  3E01               	addlw	1
  3676  0329  1903               	skipnz
  3677  032A  2B2C               	goto	u1883
  3678  032B  07F3               	addwf	___fladd@b+3,f
  3679  032C                     u1883:	
  3680  032C                     l1700:	
  3681  032C  1C73               	btfss	___fladd@b+3,0
  3682  032D  2B2F               	goto	u1891
  3683  032E  2B30               	goto	u1890
  3684  032F                     u1891:	
  3685  032F  2C0E               	goto	l1750
  3686  0330                     u1890:	
  3687  0330                     l1702:	
  3688  0330  1C7B               	btfss	___fladd@grs,0
  3689  0331  2B33               	goto	u1901
  3690  0332  2B34               	goto	u1900
  3691  0333                     u1901:	
  3692  0333  2B3F               	goto	l1706
  3693  0334                     u1900:	
  3694  0334                     l1704:	
  3695  0334  087B               	movf	___fladd@grs,w
  3696  0335  1283               	bcf	3,5	;RP0=0, select bank0
  3697  0336  1303               	bcf	3,6	;RP1=0, select bank0
  3698  0337  00A0               	movwf	??___fladd
  3699  0338  1003               	clrc
  3700  0339  0C20               	rrf	??___fladd,w
  3701  033A  3801               	iorlw	1
  3702  033B  00A1               	movwf	??___fladd+1
  3703  033C  0821               	movf	??___fladd+1,w
  3704  033D  00FB               	movwf	___fladd@grs
  3705  033E  2B41               	goto	l1708
  3706  033F                     l1706:	
  3707  033F  1003               	clrc
  3708  0340  0CFB               	rrf	___fladd@grs,f
  3709  0341                     l1708:	
  3710  0341  1C70               	btfss	___fladd@b,0
  3711  0342  2B44               	goto	u1911
  3712  0343  2B45               	goto	u1910
  3713  0344                     u1911:	
  3714  0344  2B46               	goto	l1712
  3715  0345                     u1910:	
  3716  0345                     l1710:	
  3717  0345  17FB               	bsf	___fladd@grs,7
  3718  0346                     l1712:	
  3719  0346  3001               	movlw	1
  3720  0347  1283               	bcf	3,5	;RP0=0, select bank0
  3721  0348  1303               	bcf	3,6	;RP1=0, select bank0
  3722  0349  00A0               	movwf	??___fladd
  3723  034A                     u1925:	
  3724  034A  0D73               	rlf	___fladd@b+3,w
  3725  034B  0CF3               	rrf	___fladd@b+3,f
  3726  034C  0CF2               	rrf	___fladd@b+2,f
  3727  034D  0CF1               	rrf	___fladd@b+1,f
  3728  034E  0CF0               	rrf	___fladd@b,f
  3729  034F  0BA0               	decfsz	??___fladd& (0+127),f
  3730  0350  2B4A               	goto	u1925
  3731  0351                     l1714:	
  3732  0351  3001               	movlw	1
  3733  0352  00A0               	movwf	??___fladd
  3734  0353  0820               	movf	??___fladd,w
  3735  0354  07FA               	addwf	___fladd@bexp,f
  3736  0355  2C0E               	goto	l1750
  3737  0356                     l1716:	
  3738  0356  0873               	movf	___fladd@b+3,w
  3739  0357  3A80               	xorlw	128
  3740  0358  00FF               	movwf	btemp+1
  3741  0359  0877               	movf	___fladd@a+3,w
  3742  035A  3A80               	xorlw	128
  3743  035B  027F               	subwf	btemp+1,w
  3744  035C  1D03               	skipz
  3745  035D  2B68               	goto	u1933
  3746  035E  0876               	movf	___fladd@a+2,w
  3747  035F  0272               	subwf	___fladd@b+2,w
  3748  0360  1D03               	skipz
  3749  0361  2B68               	goto	u1933
  3750  0362  0875               	movf	___fladd@a+1,w
  3751  0363  0271               	subwf	___fladd@b+1,w
  3752  0364  1D03               	skipz
  3753  0365  2B68               	goto	u1933
  3754  0366  0874               	movf	___fladd@a,w
  3755  0367  0270               	subwf	___fladd@b,w
  3756  0368                     u1933:	
  3757  0368  1803               	skipnc
  3758  0369  2B6B               	goto	u1931
  3759  036A  2B6C               	goto	u1930
  3760  036B                     u1931:	
  3761  036B  2BC6               	goto	l1726
  3762  036C                     u1930:	
  3763  036C                     l1718:	
  3764  036C  30FF               	movlw	255
  3765  036D  1283               	bcf	3,5	;RP0=0, select bank0
  3766  036E  1303               	bcf	3,6	;RP1=0, select bank0
  3767  036F  00A0               	movwf	??___fladd
  3768  0370  30FF               	movlw	255
  3769  0371  00A1               	movwf	??___fladd+1
  3770  0372  30FF               	movlw	255
  3771  0373  00A2               	movwf	??___fladd+2
  3772  0374  30FF               	movlw	255
  3773  0375  00A3               	movwf	??___fladd+3
  3774  0376  0874               	movf	___fladd@a,w
  3775  0377  00A4               	movwf	??___fladd+4
  3776  0378  0875               	movf	___fladd@a+1,w
  3777  0379  00A5               	movwf	??___fladd+5
  3778  037A  0876               	movf	___fladd@a+2,w
  3779  037B  00A6               	movwf	??___fladd+6
  3780  037C  0877               	movf	___fladd@a+3,w
  3781  037D  00A7               	movwf	??___fladd+7
  3782  037E  0870               	movf	___fladd@b,w
  3783  037F  02A4               	subwf	??___fladd+4,f
  3784  0380  0871               	movf	___fladd@b+1,w
  3785  0381  1C03               	skipc
  3786  0382  0F71               	incfsz	___fladd@b+1,w
  3787  0383  2B85               	goto	u1941
  3788  0384  2B86               	goto	u1942
  3789  0385                     u1941:	
  3790  0385  02A5               	subwf	??___fladd+5,f
  3791  0386                     u1942:	
  3792  0386  0872               	movf	___fladd@b+2,w
  3793  0387  1C03               	skipc
  3794  0388  0F72               	incfsz	___fladd@b+2,w
  3795  0389  2B8B               	goto	u1943
  3796  038A  2B8C               	goto	u1944
  3797  038B                     u1943:	
  3798  038B  02A6               	subwf	??___fladd+6,f
  3799  038C                     u1944:	
  3800  038C  0873               	movf	___fladd@b+3,w
  3801  038D  1C03               	skipc
  3802  038E  0F73               	incfsz	___fladd@b+3,w
  3803  038F  2B91               	goto	u1945
  3804  0390  2B92               	goto	u1946
  3805  0391                     u1945:	
  3806  0391  02A7               	subwf	??___fladd+7,f
  3807  0392                     u1946:	
  3808  0392  0824               	movf	??___fladd+4,w
  3809  0393  07A0               	addwf	??___fladd,f
  3810  0394  0825               	movf	??___fladd+5,w
  3811  0395  1803               	skipnc
  3812  0396  0F25               	incfsz	??___fladd+5,w
  3813  0397  2B99               	goto	u1950
  3814  0398  2B9A               	goto	u1951
  3815  0399                     u1950:	
  3816  0399  07A1               	addwf	??___fladd+1,f
  3817  039A                     u1951:	
  3818  039A  0826               	movf	??___fladd+6,w
  3819  039B  1803               	skipnc
  3820  039C  0F26               	incfsz	??___fladd+6,w
  3821  039D  2B9F               	goto	u1952
  3822  039E  2BA0               	goto	u1953
  3823  039F                     u1952:	
  3824  039F  07A2               	addwf	??___fladd+2,f
  3825  03A0                     u1953:	
  3826  03A0  0827               	movf	??___fladd+7,w
  3827  03A1  1803               	skipnc
  3828  03A2  0A27               	incf	??___fladd+7,w
  3829  03A3  07A3               	addwf	??___fladd+3,f
  3830  03A4  0823               	movf	??___fladd+3,w
  3831  03A5  00F3               	movwf	___fladd@b+3
  3832  03A6  0822               	movf	??___fladd+2,w
  3833  03A7  00F2               	movwf	___fladd@b+2
  3834  03A8  0821               	movf	??___fladd+1,w
  3835  03A9  00F1               	movwf	___fladd@b+1
  3836  03AA  0820               	movf	??___fladd,w
  3837  03AB  00F0               	movwf	___fladd@b
  3838  03AC                     l1720:	
  3839  03AC  3080               	movlw	128
  3840  03AD  00A0               	movwf	??___fladd
  3841  03AE  0820               	movf	??___fladd,w
  3842  03AF  06F8               	xorwf	___fladd@signs,f
  3843  03B0  09FB               	comf	___fladd@grs,f
  3844  03B1  0AFB               	incf	___fladd@grs,f
  3845  03B2                     l1722:	
  3846  03B2  087B               	movf	___fladd@grs,w
  3847  03B3  1D03               	btfss	3,2
  3848  03B4  2BB6               	goto	u1961
  3849  03B5  2BB7               	goto	u1960
  3850  03B6                     u1961:	
  3851  03B6  2BD4               	goto	l538
  3852  03B7                     u1960:	
  3853  03B7                     l1724:	
  3854  03B7  3001               	movlw	1
  3855  03B8  07F0               	addwf	___fladd@b,f
  3856  03B9  3000               	movlw	0
  3857  03BA  1803               	skipnc
  3858  03BB  3001               	movlw	1
  3859  03BC  07F1               	addwf	___fladd@b+1,f
  3860  03BD  3000               	movlw	0
  3861  03BE  1803               	skipnc
  3862  03BF  3001               	movlw	1
  3863  03C0  07F2               	addwf	___fladd@b+2,f
  3864  03C1  3000               	movlw	0
  3865  03C2  1803               	skipnc
  3866  03C3  3001               	movlw	1
  3867  03C4  07F3               	addwf	___fladd@b+3,f
  3868  03C5  2BD4               	goto	l538
  3869  03C6                     l1726:	
  3870  03C6  0874               	movf	___fladd@a,w
  3871  03C7  02F0               	subwf	___fladd@b,f
  3872  03C8  0875               	movf	___fladd@a+1,w
  3873  03C9  1C03               	skipc
  3874  03CA  0F75               	incfsz	___fladd@a+1,w
  3875  03CB  02F1               	subwf	___fladd@b+1,f
  3876  03CC  0876               	movf	___fladd@a+2,w
  3877  03CD  1C03               	skipc
  3878  03CE  0F76               	incfsz	___fladd@a+2,w
  3879  03CF  02F2               	subwf	___fladd@b+2,f
  3880  03D0  0877               	movf	___fladd@a+3,w
  3881  03D1  1C03               	skipc
  3882  03D2  0F77               	incfsz	___fladd@a+3,w
  3883  03D3  02F3               	subwf	___fladd@b+3,f
  3884  03D4                     l538:	
  3885  03D4  0873               	movf	___fladd@b+3,w
  3886  03D5  0472               	iorwf	___fladd@b+2,w
  3887  03D6  0471               	iorwf	___fladd@b+1,w
  3888  03D7  0470               	iorwf	___fladd@b,w
  3889  03D8  1D03               	skipz
  3890  03D9  2BDB               	goto	u1971
  3891  03DA  2BDC               	goto	u1970
  3892  03DB                     u1971:	
  3893  03DB  2C0A               	goto	l1748
  3894  03DC                     u1970:	
  3895  03DC                     l1728:	
  3896  03DC  087B               	movf	___fladd@grs,w
  3897  03DD  1D03               	btfss	3,2
  3898  03DE  2BE0               	goto	u1981
  3899  03DF  2BE1               	goto	u1980
  3900  03E0                     u1981:	
  3901  03E0  2C0A               	goto	l1748
  3902  03E1                     u1980:	
  3903  03E1                     l1730:	
  3904  03E1  3000               	movlw	0
  3905  03E2  00F3               	movwf	?___fladd+3
  3906  03E3  3000               	movlw	0
  3907  03E4  00F2               	movwf	?___fladd+2
  3908  03E5  3000               	movlw	0
  3909  03E6  00F1               	movwf	?___fladd+1
  3910  03E7  3000               	movlw	0
  3911  03E8  00F0               	movwf	?___fladd
  3912  03E9  2C8E               	goto	l530
  3913  03EA                     l1734:	
  3914  03EA  3001               	movlw	1
  3915  03EB  1283               	bcf	3,5	;RP0=0, select bank0
  3916  03EC  1303               	bcf	3,6	;RP1=0, select bank0
  3917  03ED  00A0               	movwf	??___fladd
  3918  03EE                     u1995:	
  3919  03EE  1003               	clrc
  3920  03EF  0DF0               	rlf	___fladd@b,f
  3921  03F0  0DF1               	rlf	___fladd@b+1,f
  3922  03F1  0DF2               	rlf	___fladd@b+2,f
  3923  03F2  0DF3               	rlf	___fladd@b+3,f
  3924  03F3  0BA0               	decfsz	??___fladd,f
  3925  03F4  2BEE               	goto	u1995
  3926  03F5                     l1736:	
  3927  03F5  1FFB               	btfss	___fladd@grs,7
  3928  03F6  2BF8               	goto	u2001
  3929  03F7  2BF9               	goto	u2000
  3930  03F8                     u2001:	
  3931  03F8  2BFA               	goto	l542
  3932  03F9                     u2000:	
  3933  03F9                     l1738:	
  3934  03F9  1470               	bsf	___fladd@b,0
  3935  03FA                     l542:	
  3936  03FA  1C7B               	btfss	___fladd@grs,0
  3937  03FB  2BFD               	goto	u2011
  3938  03FC  2BFE               	goto	u2010
  3939  03FD                     u2011:	
  3940  03FD  2C01               	goto	l1742
  3941  03FE                     u2010:	
  3942  03FE                     l1740:	
  3943  03FE  1403               	setc
  3944  03FF  0DFB               	rlf	___fladd@grs,f
  3945  0400  2C03               	goto	l1744
  3946  0401                     l1742:	
  3947  0401  1003               	clrc
  3948  0402  0DFB               	rlf	___fladd@grs,f
  3949  0403                     l1744:	
  3950  0403  087A               	movf	___fladd@bexp,w
  3951  0404  1903               	btfsc	3,2
  3952  0405  2C07               	goto	u2021
  3953  0406  2C08               	goto	u2020
  3954  0407                     u2021:	
  3955  0407  2C0A               	goto	l1748
  3956  0408                     u2020:	
  3957  0408                     l1746:	
  3958  0408  3001               	movlw	1
  3959  0409  02FA               	subwf	___fladd@bexp,f
  3960  040A                     l1748:	
  3961  040A  1FF2               	btfss	___fladd@b+2,7
  3962  040B  2C0D               	goto	u2031
  3963  040C  2C0E               	goto	u2030
  3964  040D                     u2031:	
  3965  040D  2BEA               	goto	l1734
  3966  040E                     u2030:	
  3967  040E                     l1750:	
  3968  040E  01F9               	clrf	___fladd@aexp
  3969  040F                     l1752:	
  3970  040F  1FFB               	btfss	___fladd@grs,7
  3971  0410  2C12               	goto	u2041
  3972  0411  2C13               	goto	u2040
  3973  0412                     u2041:	
  3974  0412  2C21               	goto	l1760
  3975  0413                     u2040:	
  3976  0413                     l1754:	
  3977  0413  087B               	movf	___fladd@grs,w
  3978  0414  397F               	andlw	127
  3979  0415  1903               	btfsc	3,2
  3980  0416  2C18               	goto	u2051
  3981  0417  2C19               	goto	u2050
  3982  0418                     u2051:	
  3983  0418  2C1C               	goto	l548
  3984  0419                     u2050:	
  3985  0419                     l1756:	
  3986  0419  01F9               	clrf	___fladd@aexp
  3987  041A  0AF9               	incf	___fladd@aexp,f
  3988  041B  2C21               	goto	l1760
  3989  041C                     l548:	
  3990  041C  1C70               	btfss	___fladd@b,0
  3991  041D  2C1F               	goto	u2061
  3992  041E  2C20               	goto	u2060
  3993  041F                     u2061:	
  3994  041F  2C21               	goto	l1760
  3995  0420                     u2060:	
  3996  0420  2C19               	goto	l1756
  3997  0421                     l1760:	
  3998  0421  0879               	movf	___fladd@aexp,w
  3999  0422  1903               	btfsc	3,2
  4000  0423  2C25               	goto	u2071
  4001  0424  2C26               	goto	u2070
  4002  0425                     u2071:	
  4003  0425  2C5C               	goto	l551
  4004  0426                     u2070:	
  4005  0426                     l1762:	
  4006  0426  3001               	movlw	1
  4007  0427  07F0               	addwf	___fladd@b,f
  4008  0428  3000               	movlw	0
  4009  0429  1803               	skipnc
  4010  042A  3001               	movlw	1
  4011  042B  07F1               	addwf	___fladd@b+1,f
  4012  042C  3000               	movlw	0
  4013  042D  1803               	skipnc
  4014  042E  3001               	movlw	1
  4015  042F  07F2               	addwf	___fladd@b+2,f
  4016  0430  3000               	movlw	0
  4017  0431  1803               	skipnc
  4018  0432  3001               	movlw	1
  4019  0433  07F3               	addwf	___fladd@b+3,f
  4020  0434                     l1764:	
  4021  0434  1C73               	btfss	___fladd@b+3,0
  4022  0435  2C37               	goto	u2081
  4023  0436  2C38               	goto	u2080
  4024  0437                     u2081:	
  4025  0437  2C5C               	goto	l551
  4026  0438                     u2080:	
  4027  0438                     l1766:	
  4028  0438  0870               	movf	___fladd@b,w
  4029  0439  1283               	bcf	3,5	;RP0=0, select bank0
  4030  043A  1303               	bcf	3,6	;RP1=0, select bank0
  4031  043B  00A0               	movwf	??___fladd
  4032  043C  0871               	movf	___fladd@b+1,w
  4033  043D  00A1               	movwf	??___fladd+1
  4034  043E  0872               	movf	___fladd@b+2,w
  4035  043F  00A2               	movwf	??___fladd+2
  4036  0440  0873               	movf	___fladd@b+3,w
  4037  0441  00A3               	movwf	??___fladd+3
  4038  0442  3001               	movlw	1
  4039  0443  00A4               	movwf	??___fladd+4
  4040  0444                     u2095:	
  4041  0444  0D23               	rlf	??___fladd+3,w
  4042  0445  0CA3               	rrf	??___fladd+3,f
  4043  0446  0CA2               	rrf	??___fladd+2,f
  4044  0447  0CA1               	rrf	??___fladd+1,f
  4045  0448  0CA0               	rrf	??___fladd,f
  4046  0449                     u2090:	
  4047  0449  0BA4               	decfsz	??___fladd+4,f
  4048  044A  2C44               	goto	u2095
  4049  044B  0823               	movf	??___fladd+3,w
  4050  044C  00F3               	movwf	___fladd@b+3
  4051  044D  0822               	movf	??___fladd+2,w
  4052  044E  00F2               	movwf	___fladd@b+2
  4053  044F  0821               	movf	??___fladd+1,w
  4054  0450  00F1               	movwf	___fladd@b+1
  4055  0451  0820               	movf	??___fladd,w
  4056  0452  00F0               	movwf	___fladd@b
  4057  0453  0A7A               	incf	___fladd@bexp,w
  4058  0454  1903               	btfsc	3,2
  4059  0455  2C57               	goto	u2101
  4060  0456  2C58               	goto	u2100
  4061  0457                     u2101:	
  4062  0457  2C5C               	goto	l551
  4063  0458                     u2100:	
  4064  0458                     l1768:	
  4065  0458  3001               	movlw	1
  4066  0459  00A0               	movwf	??___fladd
  4067  045A  0820               	movf	??___fladd,w
  4068  045B  07FA               	addwf	___fladd@bexp,f
  4069  045C                     l551:	
  4070  045C  0A7A               	incf	___fladd@bexp,w
  4071  045D  1903               	btfsc	3,2
  4072  045E  2C60               	goto	u2111
  4073  045F  2C61               	goto	u2110
  4074  0460                     u2111:	
  4075  0460  2C66               	goto	l1772
  4076  0461                     u2110:	
  4077  0461                     l1770:	
  4078  0461  087A               	movf	___fladd@bexp,w
  4079  0462  1D03               	btfss	3,2
  4080  0463  2C65               	goto	u2121
  4081  0464  2C66               	goto	u2120
  4082  0465                     u2121:	
  4083  0465  2C74               	goto	l1778
  4084  0466                     u2120:	
  4085  0466                     l1772:	
  4086  0466  3000               	movlw	0
  4087  0467  00F3               	movwf	___fladd@b+3
  4088  0468  3000               	movlw	0
  4089  0469  00F2               	movwf	___fladd@b+2
  4090  046A  3000               	movlw	0
  4091  046B  00F1               	movwf	___fladd@b+1
  4092  046C  3000               	movlw	0
  4093  046D  00F0               	movwf	___fladd@b
  4094  046E                     l1774:	
  4095  046E  087A               	movf	___fladd@bexp,w
  4096  046F  1D03               	btfss	3,2
  4097  0470  2C72               	goto	u2131
  4098  0471  2C73               	goto	u2130
  4099  0472                     u2131:	
  4100  0472  2C74               	goto	l1778
  4101  0473                     u2130:	
  4102  0473                     l1776:	
  4103  0473  01F8               	clrf	___fladd@signs
  4104  0474                     l1778:	
  4105  0474  1C7A               	btfss	___fladd@bexp,0
  4106  0475  2C77               	goto	u2141
  4107  0476  2C78               	goto	u2140
  4108  0477                     u2141:	
  4109  0477  2C7A               	goto	l1782
  4110  0478                     u2140:	
  4111  0478                     l1780:	
  4112  0478  17F2               	bsf	___fladd@b+2,7
  4113  0479  2C80               	goto	l559
  4114  047A                     l1782:	
  4115  047A  307F               	movlw	127
  4116  047B  1283               	bcf	3,5	;RP0=0, select bank0
  4117  047C  1303               	bcf	3,6	;RP1=0, select bank0
  4118  047D  00A0               	movwf	??___fladd
  4119  047E  0820               	movf	??___fladd,w
  4120  047F  05F2               	andwf	___fladd@b+2,f
  4121  0480                     l559:	
  4122  0480  087A               	movf	___fladd@bexp,w
  4123  0481  1283               	bcf	3,5	;RP0=0, select bank0
  4124  0482  1303               	bcf	3,6	;RP1=0, select bank0
  4125  0483  00A0               	movwf	??___fladd
  4126  0484  1003               	clrc
  4127  0485  0C20               	rrf	??___fladd,w
  4128  0486  00A1               	movwf	??___fladd+1
  4129  0487  0821               	movf	??___fladd+1,w
  4130  0488  00F3               	movwf	___fladd@b+3
  4131  0489                     l1784:	
  4132  0489  1FF8               	btfss	___fladd@signs,7
  4133  048A  2C8C               	goto	u2151
  4134  048B  2C8D               	goto	u2150
  4135  048C                     u2151:	
  4136  048C  2C8E               	goto	l560
  4137  048D                     u2150:	
  4138  048D                     l1786:	
  4139  048D  17F3               	bsf	___fladd@b+3,7
  4140  048E                     l560:	
  4141  048E                     l530:	
  4142  048E  0008               	return
  4143  048F                     __end_of___fladd:	
  4144                           
  4145                           	psect	text21
  4146  048F                     __ptext21:	
  4147 ;; *************** function ___flmul *****************
  4148 ;; Defined at:
  4149 ;;		line 8 in file "C:\Program Files (x86)\Microchip\xc8\v2.10\pic\sources\c90\common\sprcmul.c"
  4150 ;; Parameters:    Size  Location     Type
  4151 ;;  b               4    0[BANK0 ] unsigned char 
  4152 ;;  a               4    4[BANK0 ] unsigned char 
  4153 ;; Auto vars:     Size  Location     Type
  4154 ;;  prod            4   15[BANK0 ] struct .
  4155 ;;  grs             4    9[BANK0 ] unsigned long 
  4156 ;;  temp            2   19[BANK0 ] struct .
  4157 ;;  bexp            1   14[BANK0 ] unsigned char 
  4158 ;;  aexp            1   13[BANK0 ] unsigned char 
  4159 ;;  sign            1    8[BANK0 ] unsigned char 
  4160 ;; Return value:  Size  Location     Type
  4161 ;;                  4    0[BANK0 ] unsigned char 
  4162 ;; Registers used:
  4163 ;;		wreg, status,2, status,0, btemp+1, pclath, cstack
  4164 ;; Tracked objects:
  4165 ;;		On entry : 0/0
  4166 ;;		On exit  : 0/0
  4167 ;;		Unchanged: 0/0
  4168 ;; Data sizes:     COMMON   BANK0   BANK1   BANK3   BANK2
  4169 ;;      Params:         0       8       0       0       0
  4170 ;;      Locals:         0      13       0       0       0
  4171 ;;      Temps:          5       0       0       0       0
  4172 ;;      Totals:         5      21       0       0       0
  4173 ;;Total ram usage:       26 bytes
  4174 ;; Hardware stack levels used:    1
  4175 ;; Hardware stack levels required when called:    1
  4176 ;; This function calls:
  4177 ;;		__Umul8_16
  4178 ;; This function is called by:
  4179 ;;		_main
  4180 ;; This function uses a non-reentrant model
  4181 ;;
  4182                           
  4183                           
  4184                           ;psect for function ___flmul
  4185  048F                     ___flmul:	
  4186  048F                     l2092:	
  4187                           ;incstack = 0
  4188                           ; Regs used in ___flmul: [wreg+status,2+status,0+btemp+1+pclath+cstack]
  4189                           
  4190  048F  1283               	bcf	3,5	;RP0=0, select bank0
  4191  0490  1303               	bcf	3,6	;RP1=0, select bank0
  4192  0491  0823               	movf	___flmul@b+3,w
  4193  0492  3980               	andlw	128
  4194  0493  00F9               	movwf	??___flmul
  4195  0494  0879               	movf	??___flmul,w
  4196  0495  00A8               	movwf	___flmul@sign
  4197  0496                     l2094:	
  4198  0496  0823               	movf	___flmul@b+3,w
  4199  0497  00F9               	movwf	??___flmul
  4200  0498  0779               	addwf	??___flmul,w
  4201  0499  00FA               	movwf	??___flmul+1
  4202  049A  087A               	movf	??___flmul+1,w
  4203  049B  00AE               	movwf	___flmul@bexp
  4204  049C                     l2096:	
  4205  049C  1FA2               	btfss	___flmul@b+2,7
  4206  049D  2C9F               	goto	u2681
  4207  049E  2CA0               	goto	u2680
  4208  049F                     u2681:	
  4209  049F  2CA1               	goto	l2100
  4210  04A0                     u2680:	
  4211  04A0                     l2098:	
  4212  04A0  142E               	bsf	___flmul@bexp,0
  4213  04A1                     l2100:	
  4214  04A1  082E               	movf	___flmul@bexp,w
  4215  04A2  1903               	btfsc	3,2
  4216  04A3  2CA5               	goto	u2691
  4217  04A4  2CA6               	goto	u2690
  4218  04A5                     u2691:	
  4219  04A5  2CB5               	goto	l2108
  4220  04A6                     u2690:	
  4221  04A6                     l2102:	
  4222  04A6  0A2E               	incf	___flmul@bexp,w
  4223  04A7  1D03               	btfss	3,2
  4224  04A8  2CAA               	goto	u2701
  4225  04A9  2CAB               	goto	u2700
  4226  04AA                     u2701:	
  4227  04AA  2CB3               	goto	l2106
  4228  04AB                     u2700:	
  4229  04AB                     l2104:	
  4230  04AB  3000               	movlw	0
  4231  04AC  00A3               	movwf	___flmul@b+3
  4232  04AD  3000               	movlw	0
  4233  04AE  00A2               	movwf	___flmul@b+2
  4234  04AF  3000               	movlw	0
  4235  04B0  00A1               	movwf	___flmul@b+1
  4236  04B1  3000               	movlw	0
  4237  04B2  00A0               	movwf	___flmul@b
  4238  04B3                     l2106:	
  4239  04B3  17A2               	bsf	___flmul@b+2,7
  4240  04B4  2CBD               	goto	l2110
  4241  04B5                     l2108:	
  4242  04B5  3000               	movlw	0
  4243  04B6  00A3               	movwf	___flmul@b+3
  4244  04B7  3000               	movlw	0
  4245  04B8  00A2               	movwf	___flmul@b+2
  4246  04B9  3000               	movlw	0
  4247  04BA  00A1               	movwf	___flmul@b+1
  4248  04BB  3000               	movlw	0
  4249  04BC  00A0               	movwf	___flmul@b
  4250  04BD                     l2110:	
  4251  04BD  0827               	movf	___flmul@a+3,w
  4252  04BE  3980               	andlw	128
  4253  04BF  00F9               	movwf	??___flmul
  4254  04C0  0879               	movf	??___flmul,w
  4255  04C1  06A8               	xorwf	___flmul@sign,f
  4256  04C2                     l2112:	
  4257  04C2  0827               	movf	___flmul@a+3,w
  4258  04C3  00F9               	movwf	??___flmul
  4259  04C4  0779               	addwf	??___flmul,w
  4260  04C5  00FA               	movwf	??___flmul+1
  4261  04C6  087A               	movf	??___flmul+1,w
  4262  04C7  00AD               	movwf	___flmul@aexp
  4263  04C8                     l2114:	
  4264  04C8  1FA6               	btfss	___flmul@a+2,7
  4265  04C9  2CCB               	goto	u2711
  4266  04CA  2CCC               	goto	u2710
  4267  04CB                     u2711:	
  4268  04CB  2CCD               	goto	l2118
  4269  04CC                     u2710:	
  4270  04CC                     l2116:	
  4271  04CC  142D               	bsf	___flmul@aexp,0
  4272  04CD                     l2118:	
  4273  04CD  082D               	movf	___flmul@aexp,w
  4274  04CE  1903               	btfsc	3,2
  4275  04CF  2CD1               	goto	u2721
  4276  04D0  2CD2               	goto	u2720
  4277  04D1                     u2721:	
  4278  04D1  2CE1               	goto	l2126
  4279  04D2                     u2720:	
  4280  04D2                     l2120:	
  4281  04D2  0A2D               	incf	___flmul@aexp,w
  4282  04D3  1D03               	btfss	3,2
  4283  04D4  2CD6               	goto	u2731
  4284  04D5  2CD7               	goto	u2730
  4285  04D6                     u2731:	
  4286  04D6  2CDF               	goto	l2124
  4287  04D7                     u2730:	
  4288  04D7                     l2122:	
  4289  04D7  3000               	movlw	0
  4290  04D8  00A7               	movwf	___flmul@a+3
  4291  04D9  3000               	movlw	0
  4292  04DA  00A6               	movwf	___flmul@a+2
  4293  04DB  3000               	movlw	0
  4294  04DC  00A5               	movwf	___flmul@a+1
  4295  04DD  3000               	movlw	0
  4296  04DE  00A4               	movwf	___flmul@a
  4297  04DF                     l2124:	
  4298  04DF  17A6               	bsf	___flmul@a+2,7
  4299  04E0  2CE9               	goto	l2128
  4300  04E1                     l2126:	
  4301  04E1  3000               	movlw	0
  4302  04E2  00A7               	movwf	___flmul@a+3
  4303  04E3  3000               	movlw	0
  4304  04E4  00A6               	movwf	___flmul@a+2
  4305  04E5  3000               	movlw	0
  4306  04E6  00A5               	movwf	___flmul@a+1
  4307  04E7  3000               	movlw	0
  4308  04E8  00A4               	movwf	___flmul@a
  4309  04E9                     l2128:	
  4310  04E9  082D               	movf	___flmul@aexp,w
  4311  04EA  1903               	btfsc	3,2
  4312  04EB  2CED               	goto	u2741
  4313  04EC  2CEE               	goto	u2740
  4314  04ED                     u2741:	
  4315  04ED  2CF3               	goto	l2132
  4316  04EE                     u2740:	
  4317  04EE                     l2130:	
  4318  04EE  082E               	movf	___flmul@bexp,w
  4319  04EF  1D03               	btfss	3,2
  4320  04F0  2CF2               	goto	u2751
  4321  04F1  2CF3               	goto	u2750
  4322  04F2                     u2751:	
  4323  04F2  2CFC               	goto	l2136
  4324  04F3                     u2750:	
  4325  04F3                     l2132:	
  4326  04F3  3000               	movlw	0
  4327  04F4  00A3               	movwf	?___flmul+3
  4328  04F5  3000               	movlw	0
  4329  04F6  00A2               	movwf	?___flmul+2
  4330  04F7  3000               	movlw	0
  4331  04F8  00A1               	movwf	?___flmul+1
  4332  04F9  3000               	movlw	0
  4333  04FA  00A0               	movwf	?___flmul
  4334  04FB  2FEF               	goto	l613
  4335  04FC                     l2136:	
  4336  04FC  0820               	movf	___flmul@b,w
  4337  04FD  00F9               	movwf	??___flmul
  4338  04FE  0879               	movf	??___flmul,w
  4339  04FF  00F0               	movwf	__Umul8_16@multiplicand
  4340  0500  0826               	movf	___flmul@a+2,w
  4341  0501  120A  158A  234D  120A  118A  	fcall	__Umul8_16
  4342  0506  0871               	movf	?__Umul8_16+1,w
  4343  0507  1283               	bcf	3,5	;RP0=0, select bank0
  4344  0508  1303               	bcf	3,6	;RP1=0, select bank0
  4345  0509  00B4               	movwf	___flmul@temp+1
  4346  050A  0870               	movf	?__Umul8_16,w
  4347  050B  00B3               	movwf	___flmul@temp
  4348  050C                     l2138:	
  4349  050C  0833               	movf	___flmul@temp,w
  4350  050D  00F9               	movwf	??___flmul
  4351  050E  01FA               	clrf	??___flmul+1
  4352  050F  01FB               	clrf	??___flmul+2
  4353  0510  01FC               	clrf	??___flmul+3
  4354  0511  087C               	movf	??___flmul+3,w
  4355  0512  00AC               	movwf	___flmul@grs+3
  4356  0513  087B               	movf	??___flmul+2,w
  4357  0514  00AB               	movwf	___flmul@grs+2
  4358  0515  087A               	movf	??___flmul+1,w
  4359  0516  00AA               	movwf	___flmul@grs+1
  4360  0517  0879               	movf	??___flmul,w
  4361  0518  00A9               	movwf	___flmul@grs
  4362  0519                     l2140:	
  4363  0519  0834               	movf	___flmul@temp+1,w
  4364  051A  00F9               	movwf	??___flmul
  4365  051B  01FA               	clrf	??___flmul+1
  4366  051C  01FB               	clrf	??___flmul+2
  4367  051D  01FC               	clrf	??___flmul+3
  4368  051E  087C               	movf	??___flmul+3,w
  4369  051F  00B2               	movwf	___flmul@prod+3
  4370  0520  087B               	movf	??___flmul+2,w
  4371  0521  00B1               	movwf	___flmul@prod+2
  4372  0522  087A               	movf	??___flmul+1,w
  4373  0523  00B0               	movwf	___flmul@prod+1
  4374  0524  0879               	movf	??___flmul,w
  4375  0525  00AF               	movwf	___flmul@prod
  4376  0526  0821               	movf	___flmul@b+1,w
  4377  0527  00F9               	movwf	??___flmul
  4378  0528  0879               	movf	??___flmul,w
  4379  0529  00F0               	movwf	__Umul8_16@multiplicand
  4380  052A  0825               	movf	___flmul@a+1,w
  4381  052B  120A  158A  234D  120A  118A  	fcall	__Umul8_16
  4382  0530  0871               	movf	?__Umul8_16+1,w
  4383  0531  1283               	bcf	3,5	;RP0=0, select bank0
  4384  0532  1303               	bcf	3,6	;RP1=0, select bank0
  4385  0533  00B4               	movwf	___flmul@temp+1
  4386  0534  0870               	movf	?__Umul8_16,w
  4387  0535  00B3               	movwf	___flmul@temp
  4388  0536                     l2142:	
  4389  0536  0833               	movf	___flmul@temp,w
  4390  0537  00F9               	movwf	??___flmul
  4391  0538  01FA               	clrf	??___flmul+1
  4392  0539  01FB               	clrf	??___flmul+2
  4393  053A  01FC               	clrf	??___flmul+3
  4394  053B  0879               	movf	??___flmul,w
  4395  053C  07A9               	addwf	___flmul@grs,f
  4396  053D  087A               	movf	??___flmul+1,w
  4397  053E  1103               	clrz
  4398  053F  1803               	skipnc
  4399  0540  3E01               	addlw	1
  4400  0541  1903               	skipnz
  4401  0542  2D44               	goto	u2761
  4402  0543  07AA               	addwf	___flmul@grs+1,f
  4403  0544                     u2761:	
  4404  0544  087B               	movf	??___flmul+2,w
  4405  0545  1103               	clrz
  4406  0546  1803               	skipnc
  4407  0547  3E01               	addlw	1
  4408  0548  1903               	skipnz
  4409  0549  2D4B               	goto	u2762
  4410  054A  07AB               	addwf	___flmul@grs+2,f
  4411  054B                     u2762:	
  4412  054B  087C               	movf	??___flmul+3,w
  4413  054C  1103               	clrz
  4414  054D  1803               	skipnc
  4415  054E  3E01               	addlw	1
  4416  054F  1903               	skipnz
  4417  0550  2D52               	goto	u2763
  4418  0551  07AC               	addwf	___flmul@grs+3,f
  4419  0552                     u2763:	
  4420  0552                     l2144:	
  4421  0552  0834               	movf	___flmul@temp+1,w
  4422  0553  00F9               	movwf	??___flmul
  4423  0554  01FA               	clrf	??___flmul+1
  4424  0555  01FB               	clrf	??___flmul+2
  4425  0556  01FC               	clrf	??___flmul+3
  4426  0557  0879               	movf	??___flmul,w
  4427  0558  07AF               	addwf	___flmul@prod,f
  4428  0559  087A               	movf	??___flmul+1,w
  4429  055A  1103               	clrz
  4430  055B  1803               	skipnc
  4431  055C  3E01               	addlw	1
  4432  055D  1903               	skipnz
  4433  055E  2D60               	goto	u2771
  4434  055F  07B0               	addwf	___flmul@prod+1,f
  4435  0560                     u2771:	
  4436  0560  087B               	movf	??___flmul+2,w
  4437  0561  1103               	clrz
  4438  0562  1803               	skipnc
  4439  0563  3E01               	addlw	1
  4440  0564  1903               	skipnz
  4441  0565  2D67               	goto	u2772
  4442  0566  07B1               	addwf	___flmul@prod+2,f
  4443  0567                     u2772:	
  4444  0567  087C               	movf	??___flmul+3,w
  4445  0568  1103               	clrz
  4446  0569  1803               	skipnc
  4447  056A  3E01               	addlw	1
  4448  056B  1903               	skipnz
  4449  056C  2D6E               	goto	u2773
  4450  056D  07B2               	addwf	___flmul@prod+3,f
  4451  056E                     u2773:	
  4452  056E  0822               	movf	___flmul@b+2,w
  4453  056F  00F9               	movwf	??___flmul
  4454  0570  0879               	movf	??___flmul,w
  4455  0571  00F0               	movwf	__Umul8_16@multiplicand
  4456  0572  0824               	movf	___flmul@a,w
  4457  0573  120A  158A  234D  120A  118A  	fcall	__Umul8_16
  4458  0578  0871               	movf	?__Umul8_16+1,w
  4459  0579  1283               	bcf	3,5	;RP0=0, select bank0
  4460  057A  1303               	bcf	3,6	;RP1=0, select bank0
  4461  057B  00B4               	movwf	___flmul@temp+1
  4462  057C  0870               	movf	?__Umul8_16,w
  4463  057D  00B3               	movwf	___flmul@temp
  4464  057E                     l2146:	
  4465  057E  0833               	movf	___flmul@temp,w
  4466  057F  00F9               	movwf	??___flmul
  4467  0580  01FA               	clrf	??___flmul+1
  4468  0581  01FB               	clrf	??___flmul+2
  4469  0582  01FC               	clrf	??___flmul+3
  4470  0583  0879               	movf	??___flmul,w
  4471  0584  07A9               	addwf	___flmul@grs,f
  4472  0585  087A               	movf	??___flmul+1,w
  4473  0586  1103               	clrz
  4474  0587  1803               	skipnc
  4475  0588  3E01               	addlw	1
  4476  0589  1903               	skipnz
  4477  058A  2D8C               	goto	u2781
  4478  058B  07AA               	addwf	___flmul@grs+1,f
  4479  058C                     u2781:	
  4480  058C  087B               	movf	??___flmul+2,w
  4481  058D  1103               	clrz
  4482  058E  1803               	skipnc
  4483  058F  3E01               	addlw	1
  4484  0590  1903               	skipnz
  4485  0591  2D93               	goto	u2782
  4486  0592  07AB               	addwf	___flmul@grs+2,f
  4487  0593                     u2782:	
  4488  0593  087C               	movf	??___flmul+3,w
  4489  0594  1103               	clrz
  4490  0595  1803               	skipnc
  4491  0596  3E01               	addlw	1
  4492  0597  1903               	skipnz
  4493  0598  2D9A               	goto	u2783
  4494  0599  07AC               	addwf	___flmul@grs+3,f
  4495  059A                     u2783:	
  4496  059A                     l2148:	
  4497  059A  0834               	movf	___flmul@temp+1,w
  4498  059B  00F9               	movwf	??___flmul
  4499  059C  01FA               	clrf	??___flmul+1
  4500  059D  01FB               	clrf	??___flmul+2
  4501  059E  01FC               	clrf	??___flmul+3
  4502  059F  0879               	movf	??___flmul,w
  4503  05A0  07AF               	addwf	___flmul@prod,f
  4504  05A1  087A               	movf	??___flmul+1,w
  4505  05A2  1103               	clrz
  4506  05A3  1803               	skipnc
  4507  05A4  3E01               	addlw	1
  4508  05A5  1903               	skipnz
  4509  05A6  2DA8               	goto	u2791
  4510  05A7  07B0               	addwf	___flmul@prod+1,f
  4511  05A8                     u2791:	
  4512  05A8  087B               	movf	??___flmul+2,w
  4513  05A9  1103               	clrz
  4514  05AA  1803               	skipnc
  4515  05AB  3E01               	addlw	1
  4516  05AC  1903               	skipnz
  4517  05AD  2DAF               	goto	u2792
  4518  05AE  07B1               	addwf	___flmul@prod+2,f
  4519  05AF                     u2792:	
  4520  05AF  087C               	movf	??___flmul+3,w
  4521  05B0  1103               	clrz
  4522  05B1  1803               	skipnc
  4523  05B2  3E01               	addlw	1
  4524  05B3  1903               	skipnz
  4525  05B4  2DB6               	goto	u2793
  4526  05B5  07B2               	addwf	___flmul@prod+3,f
  4527  05B6                     u2793:	
  4528  05B6                     l2150:	
  4529  05B6  3008               	movlw	8
  4530  05B7  00F9               	movwf	??___flmul
  4531  05B8                     u2805:	
  4532  05B8  1003               	clrc
  4533  05B9  0DA9               	rlf	___flmul@grs,f
  4534  05BA  0DAA               	rlf	___flmul@grs+1,f
  4535  05BB  0DAB               	rlf	___flmul@grs+2,f
  4536  05BC  0DAC               	rlf	___flmul@grs+3,f
  4537  05BD  0BF9               	decfsz	??___flmul,f
  4538  05BE  2DB8               	goto	u2805
  4539  05BF                     l2152:	
  4540  05BF  0821               	movf	___flmul@b+1,w
  4541  05C0  00F9               	movwf	??___flmul
  4542  05C1  0879               	movf	??___flmul,w
  4543  05C2  00F0               	movwf	__Umul8_16@multiplicand
  4544  05C3  0824               	movf	___flmul@a,w
  4545  05C4  120A  158A  234D  120A  118A  	fcall	__Umul8_16
  4546  05C9  0871               	movf	?__Umul8_16+1,w
  4547  05CA  1283               	bcf	3,5	;RP0=0, select bank0
  4548  05CB  1303               	bcf	3,6	;RP1=0, select bank0
  4549  05CC  00B4               	movwf	___flmul@temp+1
  4550  05CD  0870               	movf	?__Umul8_16,w
  4551  05CE  00B3               	movwf	___flmul@temp
  4552  05CF                     l2154:	
  4553  05CF  0833               	movf	___flmul@temp,w
  4554  05D0  00F9               	movwf	??___flmul
  4555  05D1  0834               	movf	___flmul@temp+1,w
  4556  05D2  00FA               	movwf	??___flmul+1
  4557  05D3  01FB               	clrf	??___flmul+2
  4558  05D4  01FC               	clrf	??___flmul+3
  4559  05D5  0879               	movf	??___flmul,w
  4560  05D6  07A9               	addwf	___flmul@grs,f
  4561  05D7  087A               	movf	??___flmul+1,w
  4562  05D8  1103               	clrz
  4563  05D9  1803               	skipnc
  4564  05DA  3E01               	addlw	1
  4565  05DB  1903               	skipnz
  4566  05DC  2DDE               	goto	u2811
  4567  05DD  07AA               	addwf	___flmul@grs+1,f
  4568  05DE                     u2811:	
  4569  05DE  087B               	movf	??___flmul+2,w
  4570  05DF  1103               	clrz
  4571  05E0  1803               	skipnc
  4572  05E1  3E01               	addlw	1
  4573  05E2  1903               	skipnz
  4574  05E3  2DE5               	goto	u2812
  4575  05E4  07AB               	addwf	___flmul@grs+2,f
  4576  05E5                     u2812:	
  4577  05E5  087C               	movf	??___flmul+3,w
  4578  05E6  1103               	clrz
  4579  05E7  1803               	skipnc
  4580  05E8  3E01               	addlw	1
  4581  05E9  1903               	skipnz
  4582  05EA  2DEC               	goto	u2813
  4583  05EB  07AC               	addwf	___flmul@grs+3,f
  4584  05EC                     u2813:	
  4585  05EC                     l2156:	
  4586  05EC  0820               	movf	___flmul@b,w
  4587  05ED  00F9               	movwf	??___flmul
  4588  05EE  0879               	movf	??___flmul,w
  4589  05EF  00F0               	movwf	__Umul8_16@multiplicand
  4590  05F0  0825               	movf	___flmul@a+1,w
  4591  05F1  120A  158A  234D  120A  118A  	fcall	__Umul8_16
  4592  05F6  0871               	movf	?__Umul8_16+1,w
  4593  05F7  1283               	bcf	3,5	;RP0=0, select bank0
  4594  05F8  1303               	bcf	3,6	;RP1=0, select bank0
  4595  05F9  00B4               	movwf	___flmul@temp+1
  4596  05FA  0870               	movf	?__Umul8_16,w
  4597  05FB  00B3               	movwf	___flmul@temp
  4598  05FC                     l2158:	
  4599  05FC  0833               	movf	___flmul@temp,w
  4600  05FD  00F9               	movwf	??___flmul
  4601  05FE  0834               	movf	___flmul@temp+1,w
  4602  05FF  00FA               	movwf	??___flmul+1
  4603  0600  01FB               	clrf	??___flmul+2
  4604  0601  01FC               	clrf	??___flmul+3
  4605  0602  0879               	movf	??___flmul,w
  4606  0603  07A9               	addwf	___flmul@grs,f
  4607  0604  087A               	movf	??___flmul+1,w
  4608  0605  1103               	clrz
  4609  0606  1803               	skipnc
  4610  0607  3E01               	addlw	1
  4611  0608  1903               	skipnz
  4612  0609  2E0B               	goto	u2821
  4613  060A  07AA               	addwf	___flmul@grs+1,f
  4614  060B                     u2821:	
  4615  060B  087B               	movf	??___flmul+2,w
  4616  060C  1103               	clrz
  4617  060D  1803               	skipnc
  4618  060E  3E01               	addlw	1
  4619  060F  1903               	skipnz
  4620  0610  2E12               	goto	u2822
  4621  0611  07AB               	addwf	___flmul@grs+2,f
  4622  0612                     u2822:	
  4623  0612  087C               	movf	??___flmul+3,w
  4624  0613  1103               	clrz
  4625  0614  1803               	skipnc
  4626  0615  3E01               	addlw	1
  4627  0616  1903               	skipnz
  4628  0617  2E19               	goto	u2823
  4629  0618  07AC               	addwf	___flmul@grs+3,f
  4630  0619                     u2823:	
  4631  0619                     l2160:	
  4632  0619  3008               	movlw	8
  4633  061A  00F9               	movwf	??___flmul
  4634  061B                     u2835:	
  4635  061B  1003               	clrc
  4636  061C  0DA9               	rlf	___flmul@grs,f
  4637  061D  0DAA               	rlf	___flmul@grs+1,f
  4638  061E  0DAB               	rlf	___flmul@grs+2,f
  4639  061F  0DAC               	rlf	___flmul@grs+3,f
  4640  0620  0BF9               	decfsz	??___flmul,f
  4641  0621  2E1B               	goto	u2835
  4642  0622  0820               	movf	___flmul@b,w
  4643  0623  00F9               	movwf	??___flmul
  4644  0624  0879               	movf	??___flmul,w
  4645  0625  00F0               	movwf	__Umul8_16@multiplicand
  4646  0626  0824               	movf	___flmul@a,w
  4647  0627  120A  158A  234D  120A  118A  	fcall	__Umul8_16
  4648  062C  0871               	movf	?__Umul8_16+1,w
  4649  062D  1283               	bcf	3,5	;RP0=0, select bank0
  4650  062E  1303               	bcf	3,6	;RP1=0, select bank0
  4651  062F  00B4               	movwf	___flmul@temp+1
  4652  0630  0870               	movf	?__Umul8_16,w
  4653  0631  00B3               	movwf	___flmul@temp
  4654  0632                     l2162:	
  4655  0632  0833               	movf	___flmul@temp,w
  4656  0633  00F9               	movwf	??___flmul
  4657  0634  0834               	movf	___flmul@temp+1,w
  4658  0635  00FA               	movwf	??___flmul+1
  4659  0636  01FB               	clrf	??___flmul+2
  4660  0637  01FC               	clrf	??___flmul+3
  4661  0638  0879               	movf	??___flmul,w
  4662  0639  07A9               	addwf	___flmul@grs,f
  4663  063A  087A               	movf	??___flmul+1,w
  4664  063B  1103               	clrz
  4665  063C  1803               	skipnc
  4666  063D  3E01               	addlw	1
  4667  063E  1903               	skipnz
  4668  063F  2E41               	goto	u2841
  4669  0640  07AA               	addwf	___flmul@grs+1,f
  4670  0641                     u2841:	
  4671  0641  087B               	movf	??___flmul+2,w
  4672  0642  1103               	clrz
  4673  0643  1803               	skipnc
  4674  0644  3E01               	addlw	1
  4675  0645  1903               	skipnz
  4676  0646  2E48               	goto	u2842
  4677  0647  07AB               	addwf	___flmul@grs+2,f
  4678  0648                     u2842:	
  4679  0648  087C               	movf	??___flmul+3,w
  4680  0649  1103               	clrz
  4681  064A  1803               	skipnc
  4682  064B  3E01               	addlw	1
  4683  064C  1903               	skipnz
  4684  064D  2E4F               	goto	u2843
  4685  064E  07AC               	addwf	___flmul@grs+3,f
  4686  064F                     u2843:	
  4687  064F                     l2164:	
  4688  064F  0821               	movf	___flmul@b+1,w
  4689  0650  00F9               	movwf	??___flmul
  4690  0651  0879               	movf	??___flmul,w
  4691  0652  00F0               	movwf	__Umul8_16@multiplicand
  4692  0653  0826               	movf	___flmul@a+2,w
  4693  0654  120A  158A  234D  120A  118A  	fcall	__Umul8_16
  4694  0659  0871               	movf	?__Umul8_16+1,w
  4695  065A  1283               	bcf	3,5	;RP0=0, select bank0
  4696  065B  1303               	bcf	3,6	;RP1=0, select bank0
  4697  065C  00B4               	movwf	___flmul@temp+1
  4698  065D  0870               	movf	?__Umul8_16,w
  4699  065E  00B3               	movwf	___flmul@temp
  4700  065F  0833               	movf	___flmul@temp,w
  4701  0660  00F9               	movwf	??___flmul
  4702  0661  0834               	movf	___flmul@temp+1,w
  4703  0662  00FA               	movwf	??___flmul+1
  4704  0663  01FB               	clrf	??___flmul+2
  4705  0664  01FC               	clrf	??___flmul+3
  4706  0665  0879               	movf	??___flmul,w
  4707  0666  07AF               	addwf	___flmul@prod,f
  4708  0667  087A               	movf	??___flmul+1,w
  4709  0668  1103               	clrz
  4710  0669  1803               	skipnc
  4711  066A  3E01               	addlw	1
  4712  066B  1903               	skipnz
  4713  066C  2E6E               	goto	u2851
  4714  066D  07B0               	addwf	___flmul@prod+1,f
  4715  066E                     u2851:	
  4716  066E  087B               	movf	??___flmul+2,w
  4717  066F  1103               	clrz
  4718  0670  1803               	skipnc
  4719  0671  3E01               	addlw	1
  4720  0672  1903               	skipnz
  4721  0673  2E75               	goto	u2852
  4722  0674  07B1               	addwf	___flmul@prod+2,f
  4723  0675                     u2852:	
  4724  0675  087C               	movf	??___flmul+3,w
  4725  0676  1103               	clrz
  4726  0677  1803               	skipnc
  4727  0678  3E01               	addlw	1
  4728  0679  1903               	skipnz
  4729  067A  2E7C               	goto	u2853
  4730  067B  07B2               	addwf	___flmul@prod+3,f
  4731  067C                     u2853:	
  4732  067C                     l2166:	
  4733  067C  0822               	movf	___flmul@b+2,w
  4734  067D  00F9               	movwf	??___flmul
  4735  067E  0879               	movf	??___flmul,w
  4736  067F  00F0               	movwf	__Umul8_16@multiplicand
  4737  0680  0825               	movf	___flmul@a+1,w
  4738  0681  120A  158A  234D  120A  118A  	fcall	__Umul8_16
  4739  0686  0871               	movf	?__Umul8_16+1,w
  4740  0687  1283               	bcf	3,5	;RP0=0, select bank0
  4741  0688  1303               	bcf	3,6	;RP1=0, select bank0
  4742  0689  00B4               	movwf	___flmul@temp+1
  4743  068A  0870               	movf	?__Umul8_16,w
  4744  068B  00B3               	movwf	___flmul@temp
  4745  068C                     l2168:	
  4746  068C  0833               	movf	___flmul@temp,w
  4747  068D  00F9               	movwf	??___flmul
  4748  068E  0834               	movf	___flmul@temp+1,w
  4749  068F  00FA               	movwf	??___flmul+1
  4750  0690  01FB               	clrf	??___flmul+2
  4751  0691  01FC               	clrf	??___flmul+3
  4752  0692  0879               	movf	??___flmul,w
  4753  0693  07AF               	addwf	___flmul@prod,f
  4754  0694  087A               	movf	??___flmul+1,w
  4755  0695  1103               	clrz
  4756  0696  1803               	skipnc
  4757  0697  3E01               	addlw	1
  4758  0698  1903               	skipnz
  4759  0699  2E9B               	goto	u2861
  4760  069A  07B0               	addwf	___flmul@prod+1,f
  4761  069B                     u2861:	
  4762  069B  087B               	movf	??___flmul+2,w
  4763  069C  1103               	clrz
  4764  069D  1803               	skipnc
  4765  069E  3E01               	addlw	1
  4766  069F  1903               	skipnz
  4767  06A0  2EA2               	goto	u2862
  4768  06A1  07B1               	addwf	___flmul@prod+2,f
  4769  06A2                     u2862:	
  4770  06A2  087C               	movf	??___flmul+3,w
  4771  06A3  1103               	clrz
  4772  06A4  1803               	skipnc
  4773  06A5  3E01               	addlw	1
  4774  06A6  1903               	skipnz
  4775  06A7  2EA9               	goto	u2863
  4776  06A8  07B2               	addwf	___flmul@prod+3,f
  4777  06A9                     u2863:	
  4778  06A9  0822               	movf	___flmul@b+2,w
  4779  06AA  00F9               	movwf	??___flmul
  4780  06AB  0879               	movf	??___flmul,w
  4781  06AC  00F0               	movwf	__Umul8_16@multiplicand
  4782  06AD  0826               	movf	___flmul@a+2,w
  4783  06AE  120A  158A  234D  120A  118A  	fcall	__Umul8_16
  4784  06B3  0871               	movf	?__Umul8_16+1,w
  4785  06B4  1283               	bcf	3,5	;RP0=0, select bank0
  4786  06B5  1303               	bcf	3,6	;RP1=0, select bank0
  4787  06B6  00B4               	movwf	___flmul@temp+1
  4788  06B7  0870               	movf	?__Umul8_16,w
  4789  06B8  00B3               	movwf	___flmul@temp
  4790  06B9                     l2170:	
  4791  06B9  0833               	movf	___flmul@temp,w
  4792  06BA  00F9               	movwf	??___flmul
  4793  06BB  0834               	movf	___flmul@temp+1,w
  4794  06BC  00FA               	movwf	??___flmul+1
  4795  06BD  01FB               	clrf	??___flmul+2
  4796  06BE  01FC               	clrf	??___flmul+3
  4797  06BF  3008               	movlw	8
  4798  06C0                     u2875:	
  4799  06C0  1003               	clrc
  4800  06C1  0DF9               	rlf	??___flmul,f
  4801  06C2  0DFA               	rlf	??___flmul+1,f
  4802  06C3  0DFB               	rlf	??___flmul+2,f
  4803  06C4  0DFC               	rlf	??___flmul+3,f
  4804  06C5                     u2870:	
  4805  06C5  3EFF               	addlw	-1
  4806  06C6  1D03               	skipz
  4807  06C7  2EC0               	goto	u2875
  4808  06C8  0879               	movf	??___flmul,w
  4809  06C9  07AF               	addwf	___flmul@prod,f
  4810  06CA  087A               	movf	??___flmul+1,w
  4811  06CB  1103               	clrz
  4812  06CC  1803               	skipnc
  4813  06CD  3E01               	addlw	1
  4814  06CE  1903               	skipnz
  4815  06CF  2ED1               	goto	u2881
  4816  06D0  07B0               	addwf	___flmul@prod+1,f
  4817  06D1                     u2881:	
  4818  06D1  087B               	movf	??___flmul+2,w
  4819  06D2  1103               	clrz
  4820  06D3  1803               	skipnc
  4821  06D4  3E01               	addlw	1
  4822  06D5  1903               	skipnz
  4823  06D6  2ED8               	goto	u2882
  4824  06D7  07B1               	addwf	___flmul@prod+2,f
  4825  06D8                     u2882:	
  4826  06D8  087C               	movf	??___flmul+3,w
  4827  06D9  1103               	clrz
  4828  06DA  1803               	skipnc
  4829  06DB  3E01               	addlw	1
  4830  06DC  1903               	skipnz
  4831  06DD  2EDF               	goto	u2883
  4832  06DE  07B2               	addwf	___flmul@prod+3,f
  4833  06DF                     u2883:	
  4834  06DF                     l2172:	
  4835  06DF  0829               	movf	___flmul@grs,w
  4836  06E0  00F9               	movwf	??___flmul
  4837  06E1  082A               	movf	___flmul@grs+1,w
  4838  06E2  00FA               	movwf	??___flmul+1
  4839  06E3  082B               	movf	___flmul@grs+2,w
  4840  06E4  00FB               	movwf	??___flmul+2
  4841  06E5  082C               	movf	___flmul@grs+3,w
  4842  06E6  00FC               	movwf	??___flmul+3
  4843  06E7  3018               	movlw	24
  4844  06E8                     u2895:	
  4845  06E8  1003               	clrc
  4846  06E9  0CFC               	rrf	??___flmul+3,f
  4847  06EA  0CFB               	rrf	??___flmul+2,f
  4848  06EB  0CFA               	rrf	??___flmul+1,f
  4849  06EC  0CF9               	rrf	??___flmul,f
  4850  06ED                     u2890:	
  4851  06ED  3EFF               	addlw	-1
  4852  06EE  1D03               	skipz
  4853  06EF  2EE8               	goto	u2895
  4854  06F0  0879               	movf	??___flmul,w
  4855  06F1  07AF               	addwf	___flmul@prod,f
  4856  06F2  087A               	movf	??___flmul+1,w
  4857  06F3  1103               	clrz
  4858  06F4  1803               	skipnc
  4859  06F5  3E01               	addlw	1
  4860  06F6  1903               	skipnz
  4861  06F7  2EF9               	goto	u2901
  4862  06F8  07B0               	addwf	___flmul@prod+1,f
  4863  06F9                     u2901:	
  4864  06F9  087B               	movf	??___flmul+2,w
  4865  06FA  1103               	clrz
  4866  06FB  1803               	skipnc
  4867  06FC  3E01               	addlw	1
  4868  06FD  1903               	skipnz
  4869  06FE  2F00               	goto	u2902
  4870  06FF  07B1               	addwf	___flmul@prod+2,f
  4871  0700                     u2902:	
  4872  0700  087C               	movf	??___flmul+3,w
  4873  0701  1103               	clrz
  4874  0702  1803               	skipnc
  4875  0703  3E01               	addlw	1
  4876  0704  1903               	skipnz
  4877  0705  2F07               	goto	u2903
  4878  0706  07B2               	addwf	___flmul@prod+3,f
  4879  0707                     u2903:	
  4880  0707                     l2174:	
  4881  0707  3008               	movlw	8
  4882  0708  00F9               	movwf	??___flmul
  4883  0709                     u2915:	
  4884  0709  1003               	clrc
  4885  070A  0DA9               	rlf	___flmul@grs,f
  4886  070B  0DAA               	rlf	___flmul@grs+1,f
  4887  070C  0DAB               	rlf	___flmul@grs+2,f
  4888  070D  0DAC               	rlf	___flmul@grs+3,f
  4889  070E  0BF9               	decfsz	??___flmul,f
  4890  070F  2F09               	goto	u2915
  4891  0710                     l2176:	
  4892  0710  082E               	movf	___flmul@bexp,w
  4893  0711  072D               	addwf	___flmul@aexp,w
  4894  0712  00F9               	movwf	??___flmul
  4895  0713  01FA               	clrf	??___flmul+1
  4896  0714  0DFA               	rlf	??___flmul+1,f
  4897  0715  0879               	movf	??___flmul,w
  4898  0716  3E82               	addlw	130
  4899  0717  00B3               	movwf	___flmul@temp
  4900  0718  087A               	movf	??___flmul+1,w
  4901  0719  1803               	skipnc
  4902  071A  3E01               	addlw	1
  4903  071B  3EFF               	addlw	255
  4904  071C  00B4               	movwf	___flmul@temp+1
  4905  071D  2F3B               	goto	l2188
  4906  071E                     l2178:	
  4907  071E  3001               	movlw	1
  4908  071F  00F9               	movwf	??___flmul
  4909  0720                     u2925:	
  4910  0720  1003               	clrc
  4911  0721  0DAF               	rlf	___flmul@prod,f
  4912  0722  0DB0               	rlf	___flmul@prod+1,f
  4913  0723  0DB1               	rlf	___flmul@prod+2,f
  4914  0724  0DB2               	rlf	___flmul@prod+3,f
  4915  0725  0BF9               	decfsz	??___flmul,f
  4916  0726  2F20               	goto	u2925
  4917  0727                     l2180:	
  4918  0727  1FAC               	btfss	___flmul@grs+3,7
  4919  0728  2F2A               	goto	u2931
  4920  0729  2F2B               	goto	u2930
  4921  072A                     u2931:	
  4922  072A  2F2C               	goto	l2184
  4923  072B                     u2930:	
  4924  072B                     l2182:	
  4925  072B  142F               	bsf	___flmul@prod,0
  4926  072C                     l2184:	
  4927  072C  3001               	movlw	1
  4928  072D  00F9               	movwf	??___flmul
  4929  072E                     u2945:	
  4930  072E  1003               	clrc
  4931  072F  0DA9               	rlf	___flmul@grs,f
  4932  0730  0DAA               	rlf	___flmul@grs+1,f
  4933  0731  0DAB               	rlf	___flmul@grs+2,f
  4934  0732  0DAC               	rlf	___flmul@grs+3,f
  4935  0733  0BF9               	decfsz	??___flmul,f
  4936  0734  2F2E               	goto	u2945
  4937  0735                     l2186:	
  4938  0735  30FF               	movlw	255
  4939  0736  07B3               	addwf	___flmul@temp,f
  4940  0737  1803               	skipnc
  4941  0738  0AB4               	incf	___flmul@temp+1,f
  4942  0739  30FF               	movlw	255
  4943  073A  07B4               	addwf	___flmul@temp+1,f
  4944  073B                     l2188:	
  4945  073B  1FB1               	btfss	___flmul@prod+2,7
  4946  073C  2F3E               	goto	u2951
  4947  073D  2F3F               	goto	u2950
  4948  073E                     u2951:	
  4949  073E  2F1E               	goto	l2178
  4950  073F                     u2950:	
  4951  073F                     l2190:	
  4952  073F  01AD               	clrf	___flmul@aexp
  4953  0740                     l2192:	
  4954  0740  1FAC               	btfss	___flmul@grs+3,7
  4955  0741  2F43               	goto	u2961
  4956  0742  2F44               	goto	u2960
  4957  0743                     u2961:	
  4958  0743  2F60               	goto	l2200
  4959  0744                     u2960:	
  4960  0744                     l2194:	
  4961  0744  30FF               	movlw	255
  4962  0745  0529               	andwf	___flmul@grs,w
  4963  0746  00F9               	movwf	??___flmul
  4964  0747  30FF               	movlw	255
  4965  0748  052A               	andwf	___flmul@grs+1,w
  4966  0749  00FA               	movwf	??___flmul+1
  4967  074A  30FF               	movlw	255
  4968  074B  052B               	andwf	___flmul@grs+2,w
  4969  074C  00FB               	movwf	??___flmul+2
  4970  074D  307F               	movlw	127
  4971  074E  052C               	andwf	___flmul@grs+3,w
  4972  074F  00FC               	movwf	??___flmul+3
  4973  0750  087C               	movf	??___flmul+3,w
  4974  0751  047B               	iorwf	??___flmul+2,w
  4975  0752  047A               	iorwf	??___flmul+1,w
  4976  0753  0479               	iorwf	??___flmul,w
  4977  0754  1903               	skipnz
  4978  0755  2F57               	goto	u2971
  4979  0756  2F58               	goto	u2970
  4980  0757                     u2971:	
  4981  0757  2F5B               	goto	l619
  4982  0758                     u2970:	
  4983  0758                     l2196:	
  4984  0758  01AD               	clrf	___flmul@aexp
  4985  0759  0AAD               	incf	___flmul@aexp,f
  4986  075A  2F60               	goto	l2200
  4987  075B                     l619:	
  4988  075B  1C2F               	btfss	___flmul@prod,0
  4989  075C  2F5E               	goto	u2981
  4990  075D  2F5F               	goto	u2980
  4991  075E                     u2981:	
  4992  075E  2F60               	goto	l2200
  4993  075F                     u2980:	
  4994  075F  2F58               	goto	l2196
  4995  0760                     l2200:	
  4996  0760  082D               	movf	___flmul@aexp,w
  4997  0761  1903               	btfsc	3,2
  4998  0762  2F64               	goto	u2991
  4999  0763  2F65               	goto	u2990
  5000  0764                     u2991:	
  5001  0764  2F96               	goto	l2210
  5002  0765                     u2990:	
  5003  0765                     l2202:	
  5004  0765  3001               	movlw	1
  5005  0766  07AF               	addwf	___flmul@prod,f
  5006  0767  3000               	movlw	0
  5007  0768  1803               	skipnc
  5008  0769  3001               	movlw	1
  5009  076A  07B0               	addwf	___flmul@prod+1,f
  5010  076B  3000               	movlw	0
  5011  076C  1803               	skipnc
  5012  076D  3001               	movlw	1
  5013  076E  07B1               	addwf	___flmul@prod+2,f
  5014  076F  3000               	movlw	0
  5015  0770  1803               	skipnc
  5016  0771  3001               	movlw	1
  5017  0772  07B2               	addwf	___flmul@prod+3,f
  5018  0773                     l2204:	
  5019  0773  1C32               	btfss	___flmul@prod+3,0
  5020  0774  2F76               	goto	u3001
  5021  0775  2F77               	goto	u3000
  5022  0776                     u3001:	
  5023  0776  2F96               	goto	l2210
  5024  0777                     u3000:	
  5025  0777                     l2206:	
  5026  0777  082F               	movf	___flmul@prod,w
  5027  0778  00F9               	movwf	??___flmul
  5028  0779  0830               	movf	___flmul@prod+1,w
  5029  077A  00FA               	movwf	??___flmul+1
  5030  077B  0831               	movf	___flmul@prod+2,w
  5031  077C  00FB               	movwf	??___flmul+2
  5032  077D  0832               	movf	___flmul@prod+3,w
  5033  077E  00FC               	movwf	??___flmul+3
  5034  077F  3001               	movlw	1
  5035  0780  00FD               	movwf	??___flmul+4
  5036  0781                     u3015:	
  5037  0781  0D7C               	rlf	??___flmul+3,w
  5038  0782  0CFC               	rrf	??___flmul+3,f
  5039  0783  0CFB               	rrf	??___flmul+2,f
  5040  0784  0CFA               	rrf	??___flmul+1,f
  5041  0785  0CF9               	rrf	??___flmul,f
  5042  0786                     u3010:	
  5043  0786  0BFD               	decfsz	??___flmul+4,f
  5044  0787  2F81               	goto	u3015
  5045  0788  087C               	movf	??___flmul+3,w
  5046  0789  00B2               	movwf	___flmul@prod+3
  5047  078A  087B               	movf	??___flmul+2,w
  5048  078B  00B1               	movwf	___flmul@prod+2
  5049  078C  087A               	movf	??___flmul+1,w
  5050  078D  00B0               	movwf	___flmul@prod+1
  5051  078E  0879               	movf	??___flmul,w
  5052  078F  00AF               	movwf	___flmul@prod
  5053  0790                     l2208:	
  5054  0790  3001               	movlw	1
  5055  0791  07B3               	addwf	___flmul@temp,f
  5056  0792  1803               	skipnc
  5057  0793  0AB4               	incf	___flmul@temp+1,f
  5058  0794  3000               	movlw	0
  5059  0795  07B4               	addwf	___flmul@temp+1,f
  5060  0796                     l2210:	
  5061  0796  0834               	movf	___flmul@temp+1,w
  5062  0797  3A80               	xorlw	128
  5063  0798  00FF               	movwf	btemp+1
  5064  0799  3080               	movlw	128
  5065  079A  027F               	subwf	btemp+1,w
  5066  079B  1D03               	skipz
  5067  079C  2F9F               	goto	u3025
  5068  079D  30FF               	movlw	255
  5069  079E  0233               	subwf	___flmul@temp,w
  5070  079F                     u3025:	
  5071  079F  1C03               	skipc
  5072  07A0  2FA2               	goto	u3021
  5073  07A1  2FA3               	goto	u3020
  5074  07A2                     u3021:	
  5075  07A2  2FAE               	goto	l2214
  5076  07A3                     u3020:	
  5077  07A3                     l2212:	
  5078  07A3  307F               	movlw	127
  5079  07A4  1283               	bcf	3,5	;RP0=0, select bank0
  5080  07A5  1303               	bcf	3,6	;RP1=0, select bank0
  5081  07A6  00B2               	movwf	___flmul@prod+3
  5082  07A7  3080               	movlw	128
  5083  07A8  00B1               	movwf	___flmul@prod+2
  5084  07A9  3000               	movlw	0
  5085  07AA  00B0               	movwf	___flmul@prod+1
  5086  07AB  3000               	movlw	0
  5087  07AC  00AF               	movwf	___flmul@prod
  5088  07AD  2FE3               	goto	l625
  5089  07AE                     l2214:	
  5090  07AE  1283               	bcf	3,5	;RP0=0, select bank0
  5091  07AF  1303               	bcf	3,6	;RP1=0, select bank0
  5092  07B0  0834               	movf	___flmul@temp+1,w
  5093  07B1  3A80               	xorlw	128
  5094  07B2  00FF               	movwf	btemp+1
  5095  07B3  3080               	movlw	128
  5096  07B4  027F               	subwf	btemp+1,w
  5097  07B5  1D03               	skipz
  5098  07B6  2FB9               	goto	u3035
  5099  07B7  3001               	movlw	1
  5100  07B8  0233               	subwf	___flmul@temp,w
  5101  07B9                     u3035:	
  5102  07B9  1803               	skipnc
  5103  07BA  2FBC               	goto	u3031
  5104  07BB  2FBD               	goto	u3030
  5105  07BC                     u3031:	
  5106  07BC  2FC9               	goto	l2220
  5107  07BD                     u3030:	
  5108  07BD                     l2216:	
  5109  07BD  3000               	movlw	0
  5110  07BE  1283               	bcf	3,5	;RP0=0, select bank0
  5111  07BF  1303               	bcf	3,6	;RP1=0, select bank0
  5112  07C0  00B2               	movwf	___flmul@prod+3
  5113  07C1  3000               	movlw	0
  5114  07C2  00B1               	movwf	___flmul@prod+2
  5115  07C3  3000               	movlw	0
  5116  07C4  00B0               	movwf	___flmul@prod+1
  5117  07C5  3000               	movlw	0
  5118  07C6  00AF               	movwf	___flmul@prod
  5119  07C7                     l2218:	
  5120  07C7  01A8               	clrf	___flmul@sign
  5121  07C8  2FE3               	goto	l625
  5122  07C9                     l2220:	
  5123  07C9  1283               	bcf	3,5	;RP0=0, select bank0
  5124  07CA  1303               	bcf	3,6	;RP1=0, select bank0
  5125  07CB  0833               	movf	___flmul@temp,w
  5126  07CC  00F9               	movwf	??___flmul
  5127  07CD  0879               	movf	??___flmul,w
  5128  07CE  00AE               	movwf	___flmul@bexp
  5129  07CF  30FF               	movlw	255
  5130  07D0  05AF               	andwf	___flmul@prod,f
  5131  07D1  30FF               	movlw	255
  5132  07D2  05B0               	andwf	___flmul@prod+1,f
  5133  07D3  307F               	movlw	127
  5134  07D4  05B1               	andwf	___flmul@prod+2,f
  5135  07D5  3000               	movlw	0
  5136  07D6  05B2               	andwf	___flmul@prod+3,f
  5137  07D7                     l2222:	
  5138  07D7  1C2E               	btfss	___flmul@bexp,0
  5139  07D8  2FDA               	goto	u3041
  5140  07D9  2FDB               	goto	u3040
  5141  07DA                     u3041:	
  5142  07DA  2FDC               	goto	l2226
  5143  07DB                     u3040:	
  5144  07DB                     l2224:	
  5145  07DB  17B1               	bsf	___flmul@prod+2,7
  5146  07DC                     l2226:	
  5147  07DC  082E               	movf	___flmul@bexp,w
  5148  07DD  00F9               	movwf	??___flmul
  5149  07DE  1003               	clrc
  5150  07DF  0C79               	rrf	??___flmul,w
  5151  07E0  00FA               	movwf	??___flmul+1
  5152  07E1  087A               	movf	??___flmul+1,w
  5153  07E2  00B2               	movwf	___flmul@prod+3
  5154  07E3                     l625:	
  5155  07E3  0828               	movf	___flmul@sign,w
  5156  07E4  00F9               	movwf	??___flmul
  5157  07E5  0879               	movf	??___flmul,w
  5158  07E6  04B2               	iorwf	___flmul@prod+3,f
  5159  07E7                     l2228:	
  5160  07E7  0832               	movf	___flmul@prod+3,w
  5161  07E8  00A3               	movwf	?___flmul+3
  5162  07E9  0831               	movf	___flmul@prod+2,w
  5163  07EA  00A2               	movwf	?___flmul+2
  5164  07EB  0830               	movf	___flmul@prod+1,w
  5165  07EC  00A1               	movwf	?___flmul+1
  5166  07ED  082F               	movf	___flmul@prod,w
  5167  07EE  00A0               	movwf	?___flmul
  5168  07EF                     l613:	
  5169  07EF  0008               	return
  5170  07F0                     __end_of___flmul:	
  5171                           
  5172                           	psect	text22
  5173  0B4D                     __ptext22:	
  5174 ;; *************** function __Umul8_16 *****************
  5175 ;; Defined at:
  5176 ;;		line 4 in file "C:\Program Files (x86)\Microchip\xc8\v2.10\pic\sources\c90\common\Umul8_16.c"
  5177 ;; Parameters:    Size  Location     Type
  5178 ;;  multiplier      1    wreg     unsigned char 
  5179 ;;  multiplicand    1    0[COMMON] unsigned char 
  5180 ;; Auto vars:     Size  Location     Type
  5181 ;;  multiplier      1    8[COMMON] unsigned char 
  5182 ;;  word_mpld       2    6[COMMON] unsigned int 
  5183 ;;  product         2    4[COMMON] unsigned int 
  5184 ;; Return value:  Size  Location     Type
  5185 ;;                  2    0[COMMON] unsigned int 
  5186 ;; Registers used:
  5187 ;;		wreg, status,2, status,0
  5188 ;; Tracked objects:
  5189 ;;		On entry : 0/0
  5190 ;;		On exit  : 0/0
  5191 ;;		Unchanged: 0/0
  5192 ;; Data sizes:     COMMON   BANK0   BANK1   BANK3   BANK2
  5193 ;;      Params:         2       0       0       0       0
  5194 ;;      Locals:         5       0       0       0       0
  5195 ;;      Temps:          2       0       0       0       0
  5196 ;;      Totals:         9       0       0       0       0
  5197 ;;Total ram usage:        9 bytes
  5198 ;; Hardware stack levels used:    1
  5199 ;; This function calls:
  5200 ;;		Nothing
  5201 ;; This function is called by:
  5202 ;;		___flmul
  5203 ;; This function uses a non-reentrant model
  5204 ;;
  5205                           
  5206                           
  5207                           ;psect for function __Umul8_16
  5208  0B4D                     __Umul8_16:	
  5209                           
  5210                           ;incstack = 0
  5211                           ; Regs used in __Umul8_16: [wreg+status,2+status,0]
  5212                           ;__Umul8_16@multiplier stored from wreg
  5213  0B4D  00F8               	movwf	__Umul8_16@multiplier
  5214  0B4E                     l1788:	
  5215  0B4E  01F4               	clrf	__Umul8_16@product
  5216  0B4F  01F5               	clrf	__Umul8_16@product+1
  5217  0B50                     l1790:	
  5218  0B50  0870               	movf	__Umul8_16@multiplicand,w
  5219  0B51  00F2               	movwf	??__Umul8_16
  5220  0B52  01F3               	clrf	??__Umul8_16+1
  5221  0B53  0872               	movf	??__Umul8_16,w
  5222  0B54  00F6               	movwf	__Umul8_16@word_mpld
  5223  0B55  0873               	movf	??__Umul8_16+1,w
  5224  0B56  00F7               	movwf	__Umul8_16@word_mpld+1
  5225  0B57                     l1792:	
  5226  0B57  1C78               	btfss	__Umul8_16@multiplier,0
  5227  0B58  2B5A               	goto	u2161
  5228  0B59  2B5B               	goto	u2160
  5229  0B5A                     u2161:	
  5230  0B5A  2B61               	goto	l670
  5231  0B5B                     u2160:	
  5232  0B5B                     l1794:	
  5233  0B5B  0876               	movf	__Umul8_16@word_mpld,w
  5234  0B5C  07F4               	addwf	__Umul8_16@product,f
  5235  0B5D  1803               	skipnc
  5236  0B5E  0AF5               	incf	__Umul8_16@product+1,f
  5237  0B5F  0877               	movf	__Umul8_16@word_mpld+1,w
  5238  0B60  07F5               	addwf	__Umul8_16@product+1,f
  5239  0B61                     l670:	
  5240  0B61  3001               	movlw	1
  5241  0B62                     u2175:	
  5242  0B62  1003               	clrc
  5243  0B63  0DF6               	rlf	__Umul8_16@word_mpld,f
  5244  0B64  0DF7               	rlf	__Umul8_16@word_mpld+1,f
  5245  0B65  3EFF               	addlw	-1
  5246  0B66  1D03               	skipz
  5247  0B67  2B62               	goto	u2175
  5248  0B68  1003               	clrc
  5249  0B69  0CF8               	rrf	__Umul8_16@multiplier,f
  5250  0B6A                     l1796:	
  5251  0B6A  0878               	movf	__Umul8_16@multiplier,w
  5252  0B6B  1D03               	btfss	3,2
  5253  0B6C  2B6E               	goto	u2181
  5254  0B6D  2B6F               	goto	u2180
  5255  0B6E                     u2181:	
  5256  0B6E  2B57               	goto	l1792
  5257  0B6F                     u2180:	
  5258  0B6F                     l1798:	
  5259  0B6F  0875               	movf	__Umul8_16@product+1,w
  5260  0B70  00F1               	movwf	?__Umul8_16+1
  5261  0B71  0874               	movf	__Umul8_16@product,w
  5262  0B72  00F0               	movwf	?__Umul8_16
  5263  0B73                     l672:	
  5264  0B73  0008               	return
  5265  0B74                     __end_of__Umul8_16:	
  5266                           
  5267                           	psect	text23
  5268  001A                     __ptext23:	
  5269 ;; *************** function ___fldiv *****************
  5270 ;; Defined at:
  5271 ;;		line 8 in file "C:\Program Files (x86)\Microchip\xc8\v2.10\pic\sources\c90\common\sprcdiv.c"
  5272 ;; Parameters:    Size  Location     Type
  5273 ;;  a               4   21[BANK0 ] unsigned int 
  5274 ;;  b               4   25[BANK0 ] unsigned int 
  5275 ;; Auto vars:     Size  Location     Type
  5276 ;;  grs             4   41[BANK0 ] unsigned long 
  5277 ;;  rem             4   34[BANK0 ] unsigned long 
  5278 ;;  new_exp         2   39[BANK0 ] int 
  5279 ;;  aexp            1   46[BANK0 ] unsigned char 
  5280 ;;  bexp            1   45[BANK0 ] unsigned char 
  5281 ;;  sign            1   38[BANK0 ] unsigned char 
  5282 ;; Return value:  Size  Location     Type
  5283 ;;                  4   21[BANK0 ] unsigned char 
  5284 ;; Registers used:
  5285 ;;		wreg, status,2, status,0, btemp+1
  5286 ;; Tracked objects:
  5287 ;;		On entry : 0/0
  5288 ;;		On exit  : 0/0
  5289 ;;		Unchanged: 0/0
  5290 ;; Data sizes:     COMMON   BANK0   BANK1   BANK3   BANK2
  5291 ;;      Params:         0       8       0       0       0
  5292 ;;      Locals:         0      13       0       0       0
  5293 ;;      Temps:          0       5       0       0       0
  5294 ;;      Totals:         0      26       0       0       0
  5295 ;;Total ram usage:       26 bytes
  5296 ;; Hardware stack levels used:    1
  5297 ;; This function calls:
  5298 ;;		Nothing
  5299 ;; This function is called by:
  5300 ;;		_main
  5301 ;; This function uses a non-reentrant model
  5302 ;;
  5303                           
  5304                           
  5305                           ;psect for function ___fldiv
  5306  001A                     ___fldiv:	
  5307  001A                     l1950:	
  5308                           ;incstack = 0
  5309                           ; Regs used in ___fldiv: [wreg+status,2+status,0+btemp+1]
  5310                           
  5311  001A  1283               	bcf	3,5	;RP0=0, select bank0
  5312  001B  1303               	bcf	3,6	;RP1=0, select bank0
  5313  001C  083C               	movf	___fldiv@b+3,w
  5314  001D  3980               	andlw	128
  5315  001E  00BD               	movwf	??___fldiv
  5316  001F  083D               	movf	??___fldiv,w
  5317  0020  00C6               	movwf	___fldiv@sign
  5318  0021                     l1952:	
  5319  0021  083C               	movf	___fldiv@b+3,w
  5320  0022  00BD               	movwf	??___fldiv
  5321  0023  073D               	addwf	??___fldiv,w
  5322  0024  00BE               	movwf	??___fldiv+1
  5323  0025  083E               	movf	??___fldiv+1,w
  5324  0026  00CD               	movwf	___fldiv@bexp
  5325  0027                     l1954:	
  5326  0027  1FBB               	btfss	___fldiv@b+2,7
  5327  0028  282A               	goto	u2391
  5328  0029  282B               	goto	u2390
  5329  002A                     u2391:	
  5330  002A  282C               	goto	l1958
  5331  002B                     u2390:	
  5332  002B                     l1956:	
  5333  002B  144D               	bsf	___fldiv@bexp,0
  5334  002C                     l1958:	
  5335  002C  084D               	movf	___fldiv@bexp,w
  5336  002D  1903               	btfsc	3,2
  5337  002E  2830               	goto	u2401
  5338  002F  2831               	goto	u2400
  5339  0030                     u2401:	
  5340  0030  2841               	goto	l1968
  5341  0031                     u2400:	
  5342  0031                     l1960:	
  5343  0031  0A4D               	incf	___fldiv@bexp,w
  5344  0032  1D03               	btfss	3,2
  5345  0033  2835               	goto	u2411
  5346  0034  2836               	goto	u2410
  5347  0035                     u2411:	
  5348  0035  283E               	goto	l1964
  5349  0036                     u2410:	
  5350  0036                     l1962:	
  5351  0036  3000               	movlw	0
  5352  0037  00BC               	movwf	___fldiv@b+3
  5353  0038  3000               	movlw	0
  5354  0039  00BB               	movwf	___fldiv@b+2
  5355  003A  3000               	movlw	0
  5356  003B  00BA               	movwf	___fldiv@b+1
  5357  003C  3000               	movlw	0
  5358  003D  00B9               	movwf	___fldiv@b
  5359  003E                     l1964:	
  5360  003E  17BB               	bsf	___fldiv@b+2,7
  5361  003F                     l1966:	
  5362  003F  01BC               	clrf	___fldiv@b+3
  5363  0040  2849               	goto	l1970
  5364  0041                     l1968:	
  5365  0041  3000               	movlw	0
  5366  0042  00BC               	movwf	___fldiv@b+3
  5367  0043  3000               	movlw	0
  5368  0044  00BB               	movwf	___fldiv@b+2
  5369  0045  3000               	movlw	0
  5370  0046  00BA               	movwf	___fldiv@b+1
  5371  0047  3000               	movlw	0
  5372  0048  00B9               	movwf	___fldiv@b
  5373  0049                     l1970:	
  5374  0049  0838               	movf	___fldiv@a+3,w
  5375  004A  3980               	andlw	128
  5376  004B  00BD               	movwf	??___fldiv
  5377  004C  083D               	movf	??___fldiv,w
  5378  004D  06C6               	xorwf	___fldiv@sign,f
  5379  004E                     l1972:	
  5380  004E  0838               	movf	___fldiv@a+3,w
  5381  004F  00BD               	movwf	??___fldiv
  5382  0050  073D               	addwf	??___fldiv,w
  5383  0051  00BE               	movwf	??___fldiv+1
  5384  0052  083E               	movf	??___fldiv+1,w
  5385  0053  00CE               	movwf	___fldiv@aexp
  5386  0054                     l1974:	
  5387  0054  1FB7               	btfss	___fldiv@a+2,7
  5388  0055  2857               	goto	u2421
  5389  0056  2858               	goto	u2420
  5390  0057                     u2421:	
  5391  0057  2859               	goto	l1978
  5392  0058                     u2420:	
  5393  0058                     l1976:	
  5394  0058  144E               	bsf	___fldiv@aexp,0
  5395  0059                     l1978:	
  5396  0059  084E               	movf	___fldiv@aexp,w
  5397  005A  1903               	btfsc	3,2
  5398  005B  285D               	goto	u2431
  5399  005C  285E               	goto	u2430
  5400  005D                     u2431:	
  5401  005D  286E               	goto	l1988
  5402  005E                     u2430:	
  5403  005E                     l1980:	
  5404  005E  0A4E               	incf	___fldiv@aexp,w
  5405  005F  1D03               	btfss	3,2
  5406  0060  2862               	goto	u2441
  5407  0061  2863               	goto	u2440
  5408  0062                     u2441:	
  5409  0062  286B               	goto	l1984
  5410  0063                     u2440:	
  5411  0063                     l1982:	
  5412  0063  3000               	movlw	0
  5413  0064  00B8               	movwf	___fldiv@a+3
  5414  0065  3000               	movlw	0
  5415  0066  00B7               	movwf	___fldiv@a+2
  5416  0067  3000               	movlw	0
  5417  0068  00B6               	movwf	___fldiv@a+1
  5418  0069  3000               	movlw	0
  5419  006A  00B5               	movwf	___fldiv@a
  5420  006B                     l1984:	
  5421  006B  17B7               	bsf	___fldiv@a+2,7
  5422  006C                     l1986:	
  5423  006C  01B8               	clrf	___fldiv@a+3
  5424  006D  2876               	goto	l573
  5425  006E                     l1988:	
  5426  006E  3000               	movlw	0
  5427  006F  00B8               	movwf	___fldiv@a+3
  5428  0070  3000               	movlw	0
  5429  0071  00B7               	movwf	___fldiv@a+2
  5430  0072  3000               	movlw	0
  5431  0073  00B6               	movwf	___fldiv@a+1
  5432  0074  3000               	movlw	0
  5433  0075  00B5               	movwf	___fldiv@a
  5434  0076                     l573:	
  5435  0076  0838               	movf	___fldiv@a+3,w
  5436  0077  0437               	iorwf	___fldiv@a+2,w
  5437  0078  0436               	iorwf	___fldiv@a+1,w
  5438  0079  0435               	iorwf	___fldiv@a,w
  5439  007A  1D03               	skipz
  5440  007B  287D               	goto	u2451
  5441  007C  287E               	goto	u2450
  5442  007D                     u2451:	
  5443  007D  2897               	goto	l1998
  5444  007E                     u2450:	
  5445  007E                     l1990:	
  5446  007E  3000               	movlw	0
  5447  007F  00BC               	movwf	___fldiv@b+3
  5448  0080  3000               	movlw	0
  5449  0081  00BB               	movwf	___fldiv@b+2
  5450  0082  3000               	movlw	0
  5451  0083  00BA               	movwf	___fldiv@b+1
  5452  0084  3000               	movlw	0
  5453  0085  00B9               	movwf	___fldiv@b
  5454  0086  3080               	movlw	128
  5455  0087  04BB               	iorwf	___fldiv@b+2,f
  5456  0088  307F               	movlw	127
  5457  0089  04BC               	iorwf	___fldiv@b+3,f
  5458  008A                     l1992:	
  5459  008A  0846               	movf	___fldiv@sign,w
  5460  008B  00BD               	movwf	??___fldiv
  5461  008C  083D               	movf	??___fldiv,w
  5462  008D  04BC               	iorwf	___fldiv@b+3,f
  5463  008E                     l1994:	
  5464  008E  083C               	movf	___fldiv@b+3,w
  5465  008F  00B8               	movwf	?___fldiv+3
  5466  0090  083B               	movf	___fldiv@b+2,w
  5467  0091  00B7               	movwf	?___fldiv+2
  5468  0092  083A               	movf	___fldiv@b+1,w
  5469  0093  00B6               	movwf	?___fldiv+1
  5470  0094  0839               	movf	___fldiv@b,w
  5471  0095  00B5               	movwf	?___fldiv
  5472  0096  29F6               	goto	l575
  5473  0097                     l1998:	
  5474  0097  084D               	movf	___fldiv@bexp,w
  5475  0098  1D03               	btfss	3,2
  5476  0099  289B               	goto	u2461
  5477  009A  289C               	goto	u2460
  5478  009B                     u2461:	
  5479  009B  28A5               	goto	l2004
  5480  009C                     u2460:	
  5481  009C                     l2000:	
  5482  009C  3000               	movlw	0
  5483  009D  00B8               	movwf	?___fldiv+3
  5484  009E  3000               	movlw	0
  5485  009F  00B7               	movwf	?___fldiv+2
  5486  00A0  3000               	movlw	0
  5487  00A1  00B6               	movwf	?___fldiv+1
  5488  00A2  3000               	movlw	0
  5489  00A3  00B5               	movwf	?___fldiv
  5490  00A4  29F6               	goto	l575
  5491  00A5                     l2004:	
  5492  00A5  084D               	movf	___fldiv@bexp,w
  5493  00A6  00BD               	movwf	??___fldiv
  5494  00A7  01BE               	clrf	??___fldiv+1
  5495  00A8  083E               	movf	??___fldiv+1,w
  5496  00A9  00C0               	movwf	??___fldiv+3
  5497  00AA  084E               	movf	___fldiv@aexp,w
  5498  00AB  023D               	subwf	??___fldiv,w
  5499  00AC  00BF               	movwf	??___fldiv+2
  5500  00AD  1C03               	skipc
  5501  00AE  03C0               	decf	??___fldiv+3,f
  5502  00AF  083F               	movf	??___fldiv+2,w
  5503  00B0  3E7F               	addlw	127
  5504  00B1  00C7               	movwf	___fldiv@new_exp
  5505  00B2  0840               	movf	??___fldiv+3,w
  5506  00B3  1803               	skipnc
  5507  00B4  3E01               	addlw	1
  5508  00B5  3E00               	addlw	0
  5509  00B6  00C8               	movwf	___fldiv@new_exp+1
  5510  00B7                     l2006:	
  5511  00B7  083C               	movf	___fldiv@b+3,w
  5512  00B8  00C5               	movwf	___fldiv@rem+3
  5513  00B9  083B               	movf	___fldiv@b+2,w
  5514  00BA  00C4               	movwf	___fldiv@rem+2
  5515  00BB  083A               	movf	___fldiv@b+1,w
  5516  00BC  00C3               	movwf	___fldiv@rem+1
  5517  00BD  0839               	movf	___fldiv@b,w
  5518  00BE  00C2               	movwf	___fldiv@rem
  5519  00BF                     l2008:	
  5520  00BF  3000               	movlw	0
  5521  00C0  00BC               	movwf	___fldiv@b+3
  5522  00C1  3000               	movlw	0
  5523  00C2  00BB               	movwf	___fldiv@b+2
  5524  00C3  3000               	movlw	0
  5525  00C4  00BA               	movwf	___fldiv@b+1
  5526  00C5  3000               	movlw	0
  5527  00C6  00B9               	movwf	___fldiv@b
  5528  00C7                     l2010:	
  5529  00C7  3000               	movlw	0
  5530  00C8  00CC               	movwf	___fldiv@grs+3
  5531  00C9  3000               	movlw	0
  5532  00CA  00CB               	movwf	___fldiv@grs+2
  5533  00CB  3000               	movlw	0
  5534  00CC  00CA               	movwf	___fldiv@grs+1
  5535  00CD  3000               	movlw	0
  5536  00CE  00C9               	movwf	___fldiv@grs
  5537  00CF                     l2012:	
  5538  00CF  01CE               	clrf	___fldiv@aexp
  5539  00D0  291B               	goto	l2032
  5540  00D1                     l2014:	
  5541  00D1  084E               	movf	___fldiv@aexp,w
  5542  00D2  1903               	btfsc	3,2
  5543  00D3  28D5               	goto	u2471
  5544  00D4  28D6               	goto	u2470
  5545  00D5                     u2471:	
  5546  00D5  28F6               	goto	l2024
  5547  00D6                     u2470:	
  5548  00D6                     l2016:	
  5549  00D6  3001               	movlw	1
  5550  00D7  00BD               	movwf	??___fldiv
  5551  00D8                     u2485:	
  5552  00D8  1003               	clrc
  5553  00D9  0DC2               	rlf	___fldiv@rem,f
  5554  00DA  0DC3               	rlf	___fldiv@rem+1,f
  5555  00DB  0DC4               	rlf	___fldiv@rem+2,f
  5556  00DC  0DC5               	rlf	___fldiv@rem+3,f
  5557  00DD  0BBD               	decfsz	??___fldiv,f
  5558  00DE  28D8               	goto	u2485
  5559  00DF  3001               	movlw	1
  5560  00E0  00BD               	movwf	??___fldiv
  5561  00E1                     u2495:	
  5562  00E1  1003               	clrc
  5563  00E2  0DB9               	rlf	___fldiv@b,f
  5564  00E3  0DBA               	rlf	___fldiv@b+1,f
  5565  00E4  0DBB               	rlf	___fldiv@b+2,f
  5566  00E5  0DBC               	rlf	___fldiv@b+3,f
  5567  00E6  0BBD               	decfsz	??___fldiv,f
  5568  00E7  28E1               	goto	u2495
  5569  00E8                     l2018:	
  5570  00E8  1FCC               	btfss	___fldiv@grs+3,7
  5571  00E9  28EB               	goto	u2501
  5572  00EA  28EC               	goto	u2500
  5573  00EB                     u2501:	
  5574  00EB  28ED               	goto	l2022
  5575  00EC                     u2500:	
  5576  00EC                     l2020:	
  5577  00EC  1439               	bsf	___fldiv@b,0
  5578  00ED                     l2022:	
  5579  00ED  3001               	movlw	1
  5580  00EE  00BD               	movwf	??___fldiv
  5581  00EF                     u2515:	
  5582  00EF  1003               	clrc
  5583  00F0  0DC9               	rlf	___fldiv@grs,f
  5584  00F1  0DCA               	rlf	___fldiv@grs+1,f
  5585  00F2  0DCB               	rlf	___fldiv@grs+2,f
  5586  00F3  0DCC               	rlf	___fldiv@grs+3,f
  5587  00F4  0BBD               	decfsz	??___fldiv,f
  5588  00F5  28EF               	goto	u2515
  5589  00F6                     l2024:	
  5590  00F6  0838               	movf	___fldiv@a+3,w
  5591  00F7  0245               	subwf	___fldiv@rem+3,w
  5592  00F8  1D03               	skipz
  5593  00F9  2904               	goto	u2525
  5594  00FA  0837               	movf	___fldiv@a+2,w
  5595  00FB  0244               	subwf	___fldiv@rem+2,w
  5596  00FC  1D03               	skipz
  5597  00FD  2904               	goto	u2525
  5598  00FE  0836               	movf	___fldiv@a+1,w
  5599  00FF  0243               	subwf	___fldiv@rem+1,w
  5600  0100  1D03               	skipz
  5601  0101  2904               	goto	u2525
  5602  0102  0835               	movf	___fldiv@a,w
  5603  0103  0242               	subwf	___fldiv@rem,w
  5604  0104                     u2525:	
  5605  0104  1C03               	skipc
  5606  0105  2907               	goto	u2521
  5607  0106  2908               	goto	u2520
  5608  0107                     u2521:	
  5609  0107  2917               	goto	l2030
  5610  0108                     u2520:	
  5611  0108                     l2026:	
  5612  0108  174C               	bsf	___fldiv@grs+3,6
  5613  0109                     l2028:	
  5614  0109  0835               	movf	___fldiv@a,w
  5615  010A  02C2               	subwf	___fldiv@rem,f
  5616  010B  0836               	movf	___fldiv@a+1,w
  5617  010C  1C03               	skipc
  5618  010D  0F36               	incfsz	___fldiv@a+1,w
  5619  010E  02C3               	subwf	___fldiv@rem+1,f
  5620  010F  0837               	movf	___fldiv@a+2,w
  5621  0110  1C03               	skipc
  5622  0111  0F37               	incfsz	___fldiv@a+2,w
  5623  0112  02C4               	subwf	___fldiv@rem+2,f
  5624  0113  0838               	movf	___fldiv@a+3,w
  5625  0114  1C03               	skipc
  5626  0115  0F38               	incfsz	___fldiv@a+3,w
  5627  0116  02C5               	subwf	___fldiv@rem+3,f
  5628  0117                     l2030:	
  5629  0117  3001               	movlw	1
  5630  0118  00BD               	movwf	??___fldiv
  5631  0119  083D               	movf	??___fldiv,w
  5632  011A  07CE               	addwf	___fldiv@aexp,f
  5633  011B                     l2032:	
  5634  011B  301A               	movlw	26
  5635  011C  024E               	subwf	___fldiv@aexp,w
  5636  011D  1C03               	skipc
  5637  011E  2920               	goto	u2531
  5638  011F  2921               	goto	u2530
  5639  0120                     u2531:	
  5640  0120  28D1               	goto	l2014
  5641  0121                     u2530:	
  5642  0121                     l2034:	
  5643  0121  0845               	movf	___fldiv@rem+3,w
  5644  0122  0444               	iorwf	___fldiv@rem+2,w
  5645  0123  0443               	iorwf	___fldiv@rem+1,w
  5646  0124  0442               	iorwf	___fldiv@rem,w
  5647  0125  1903               	skipnz
  5648  0126  2928               	goto	u2541
  5649  0127  2929               	goto	u2540
  5650  0128                     u2541:	
  5651  0128  2948               	goto	l2048
  5652  0129                     u2540:	
  5653  0129                     l2036:	
  5654  0129  1449               	bsf	___fldiv@grs,0
  5655  012A  2948               	goto	l2048
  5656  012B                     l2038:	
  5657  012B  3001               	movlw	1
  5658  012C  00BD               	movwf	??___fldiv
  5659  012D                     u2555:	
  5660  012D  1003               	clrc
  5661  012E  0DB9               	rlf	___fldiv@b,f
  5662  012F  0DBA               	rlf	___fldiv@b+1,f
  5663  0130  0DBB               	rlf	___fldiv@b+2,f
  5664  0131  0DBC               	rlf	___fldiv@b+3,f
  5665  0132  0BBD               	decfsz	??___fldiv,f
  5666  0133  292D               	goto	u2555
  5667  0134                     l2040:	
  5668  0134  1FCC               	btfss	___fldiv@grs+3,7
  5669  0135  2937               	goto	u2561
  5670  0136  2938               	goto	u2560
  5671  0137                     u2561:	
  5672  0137  2939               	goto	l2044
  5673  0138                     u2560:	
  5674  0138                     l2042:	
  5675  0138  1439               	bsf	___fldiv@b,0
  5676  0139                     l2044:	
  5677  0139  3001               	movlw	1
  5678  013A  00BD               	movwf	??___fldiv
  5679  013B                     u2575:	
  5680  013B  1003               	clrc
  5681  013C  0DC9               	rlf	___fldiv@grs,f
  5682  013D  0DCA               	rlf	___fldiv@grs+1,f
  5683  013E  0DCB               	rlf	___fldiv@grs+2,f
  5684  013F  0DCC               	rlf	___fldiv@grs+3,f
  5685  0140  0BBD               	decfsz	??___fldiv,f
  5686  0141  293B               	goto	u2575
  5687  0142                     l2046:	
  5688  0142  30FF               	movlw	255
  5689  0143  07C7               	addwf	___fldiv@new_exp,f
  5690  0144  1803               	skipnc
  5691  0145  0AC8               	incf	___fldiv@new_exp+1,f
  5692  0146  30FF               	movlw	255
  5693  0147  07C8               	addwf	___fldiv@new_exp+1,f
  5694  0148                     l2048:	
  5695  0148  1FBB               	btfss	___fldiv@b+2,7
  5696  0149  294B               	goto	u2581
  5697  014A  294C               	goto	u2580
  5698  014B                     u2581:	
  5699  014B  292B               	goto	l2038
  5700  014C                     u2580:	
  5701  014C                     l2050:	
  5702  014C  01CE               	clrf	___fldiv@aexp
  5703  014D                     l2052:	
  5704  014D  1FCC               	btfss	___fldiv@grs+3,7
  5705  014E  2950               	goto	u2591
  5706  014F  2951               	goto	u2590
  5707  0150                     u2591:	
  5708  0150  296D               	goto	l2060
  5709  0151                     u2590:	
  5710  0151                     l2054:	
  5711  0151  30FF               	movlw	255
  5712  0152  0549               	andwf	___fldiv@grs,w
  5713  0153  00BD               	movwf	??___fldiv
  5714  0154  30FF               	movlw	255
  5715  0155  054A               	andwf	___fldiv@grs+1,w
  5716  0156  00BE               	movwf	??___fldiv+1
  5717  0157  30FF               	movlw	255
  5718  0158  054B               	andwf	___fldiv@grs+2,w
  5719  0159  00BF               	movwf	??___fldiv+2
  5720  015A  307F               	movlw	127
  5721  015B  054C               	andwf	___fldiv@grs+3,w
  5722  015C  00C0               	movwf	??___fldiv+3
  5723  015D  0840               	movf	??___fldiv+3,w
  5724  015E  043F               	iorwf	??___fldiv+2,w
  5725  015F  043E               	iorwf	??___fldiv+1,w
  5726  0160  043D               	iorwf	??___fldiv,w
  5727  0161  1903               	skipnz
  5728  0162  2964               	goto	u2601
  5729  0163  2965               	goto	u2600
  5730  0164                     u2601:	
  5731  0164  2968               	goto	l589
  5732  0165                     u2600:	
  5733  0165                     l2056:	
  5734  0165  01CE               	clrf	___fldiv@aexp
  5735  0166  0ACE               	incf	___fldiv@aexp,f
  5736  0167  296D               	goto	l2060
  5737  0168                     l589:	
  5738  0168  1C39               	btfss	___fldiv@b,0
  5739  0169  296B               	goto	u2611
  5740  016A  296C               	goto	u2610
  5741  016B                     u2611:	
  5742  016B  296D               	goto	l2060
  5743  016C                     u2610:	
  5744  016C  2965               	goto	l2056
  5745  016D                     l2060:	
  5746  016D  084E               	movf	___fldiv@aexp,w
  5747  016E  1903               	btfsc	3,2
  5748  016F  2971               	goto	u2621
  5749  0170  2972               	goto	u2620
  5750  0171                     u2621:	
  5751  0171  29A3               	goto	l2070
  5752  0172                     u2620:	
  5753  0172                     l2062:	
  5754  0172  3001               	movlw	1
  5755  0173  07B9               	addwf	___fldiv@b,f
  5756  0174  3000               	movlw	0
  5757  0175  1803               	skipnc
  5758  0176  3001               	movlw	1
  5759  0177  07BA               	addwf	___fldiv@b+1,f
  5760  0178  3000               	movlw	0
  5761  0179  1803               	skipnc
  5762  017A  3001               	movlw	1
  5763  017B  07BB               	addwf	___fldiv@b+2,f
  5764  017C  3000               	movlw	0
  5765  017D  1803               	skipnc
  5766  017E  3001               	movlw	1
  5767  017F  07BC               	addwf	___fldiv@b+3,f
  5768  0180                     l2064:	
  5769  0180  1C3C               	btfss	___fldiv@b+3,0
  5770  0181  2983               	goto	u2631
  5771  0182  2984               	goto	u2630
  5772  0183                     u2631:	
  5773  0183  29A3               	goto	l2070
  5774  0184                     u2630:	
  5775  0184                     l2066:	
  5776  0184  0839               	movf	___fldiv@b,w
  5777  0185  00BD               	movwf	??___fldiv
  5778  0186  083A               	movf	___fldiv@b+1,w
  5779  0187  00BE               	movwf	??___fldiv+1
  5780  0188  083B               	movf	___fldiv@b+2,w
  5781  0189  00BF               	movwf	??___fldiv+2
  5782  018A  083C               	movf	___fldiv@b+3,w
  5783  018B  00C0               	movwf	??___fldiv+3
  5784  018C  3001               	movlw	1
  5785  018D  00C1               	movwf	??___fldiv+4
  5786  018E                     u2645:	
  5787  018E  0D40               	rlf	??___fldiv+3,w
  5788  018F  0CC0               	rrf	??___fldiv+3,f
  5789  0190  0CBF               	rrf	??___fldiv+2,f
  5790  0191  0CBE               	rrf	??___fldiv+1,f
  5791  0192  0CBD               	rrf	??___fldiv,f
  5792  0193                     u2640:	
  5793  0193  0BC1               	decfsz	??___fldiv+4,f
  5794  0194  298E               	goto	u2645
  5795  0195  0840               	movf	??___fldiv+3,w
  5796  0196  00BC               	movwf	___fldiv@b+3
  5797  0197  083F               	movf	??___fldiv+2,w
  5798  0198  00BB               	movwf	___fldiv@b+2
  5799  0199  083E               	movf	??___fldiv+1,w
  5800  019A  00BA               	movwf	___fldiv@b+1
  5801  019B  083D               	movf	??___fldiv,w
  5802  019C  00B9               	movwf	___fldiv@b
  5803  019D                     l2068:	
  5804  019D  3001               	movlw	1
  5805  019E  07C7               	addwf	___fldiv@new_exp,f
  5806  019F  1803               	skipnc
  5807  01A0  0AC8               	incf	___fldiv@new_exp+1,f
  5808  01A1  3000               	movlw	0
  5809  01A2  07C8               	addwf	___fldiv@new_exp+1,f
  5810  01A3                     l2070:	
  5811  01A3  0848               	movf	___fldiv@new_exp+1,w
  5812  01A4  3A80               	xorlw	128
  5813  01A5  00FF               	movwf	btemp+1
  5814  01A6  3080               	movlw	128
  5815  01A7  027F               	subwf	btemp+1,w
  5816  01A8  1D03               	skipz
  5817  01A9  29AC               	goto	u2655
  5818  01AA  30FF               	movlw	255
  5819  01AB  0247               	subwf	___fldiv@new_exp,w
  5820  01AC                     u2655:	
  5821  01AC  1C03               	skipc
  5822  01AD  29AF               	goto	u2651
  5823  01AE  29B0               	goto	u2650
  5824  01AF                     u2651:	
  5825  01AF  29BE               	goto	l2074
  5826  01B0                     u2650:	
  5827  01B0                     l2072:	
  5828  01B0  30FF               	movlw	255
  5829  01B1  1283               	bcf	3,5	;RP0=0, select bank0
  5830  01B2  1303               	bcf	3,6	;RP1=0, select bank0
  5831  01B3  00C7               	movwf	___fldiv@new_exp
  5832  01B4  3000               	movlw	0
  5833  01B5  00C8               	movwf	___fldiv@new_exp+1
  5834  01B6  3000               	movlw	0
  5835  01B7  00BC               	movwf	___fldiv@b+3
  5836  01B8  3000               	movlw	0
  5837  01B9  00BB               	movwf	___fldiv@b+2
  5838  01BA  3000               	movlw	0
  5839  01BB  00BA               	movwf	___fldiv@b+1
  5840  01BC  3000               	movlw	0
  5841  01BD  00B9               	movwf	___fldiv@b
  5842  01BE                     l2074:	
  5843  01BE  1283               	bcf	3,5	;RP0=0, select bank0
  5844  01BF  1303               	bcf	3,6	;RP1=0, select bank0
  5845  01C0  0848               	movf	___fldiv@new_exp+1,w
  5846  01C1  3A80               	xorlw	128
  5847  01C2  00FF               	movwf	btemp+1
  5848  01C3  3080               	movlw	128
  5849  01C4  027F               	subwf	btemp+1,w
  5850  01C5  1D03               	skipz
  5851  01C6  29C9               	goto	u2665
  5852  01C7  3001               	movlw	1
  5853  01C8  0247               	subwf	___fldiv@new_exp,w
  5854  01C9                     u2665:	
  5855  01C9  1803               	skipnc
  5856  01CA  29CC               	goto	u2661
  5857  01CB  29CD               	goto	u2660
  5858  01CC                     u2661:	
  5859  01CC  29DA               	goto	l595
  5860  01CD                     u2660:	
  5861  01CD                     l2076:	
  5862  01CD  1283               	bcf	3,5	;RP0=0, select bank0
  5863  01CE  1303               	bcf	3,6	;RP1=0, select bank0
  5864  01CF  01C7               	clrf	___fldiv@new_exp
  5865  01D0  01C8               	clrf	___fldiv@new_exp+1
  5866  01D1                     l2078:	
  5867  01D1  3000               	movlw	0
  5868  01D2  00BC               	movwf	___fldiv@b+3
  5869  01D3  3000               	movlw	0
  5870  01D4  00BB               	movwf	___fldiv@b+2
  5871  01D5  3000               	movlw	0
  5872  01D6  00BA               	movwf	___fldiv@b+1
  5873  01D7  3000               	movlw	0
  5874  01D8  00B9               	movwf	___fldiv@b
  5875  01D9                     l2080:	
  5876  01D9  01C6               	clrf	___fldiv@sign
  5877  01DA                     l595:	
  5878  01DA  1283               	bcf	3,5	;RP0=0, select bank0
  5879  01DB  1303               	bcf	3,6	;RP1=0, select bank0
  5880  01DC  0847               	movf	___fldiv@new_exp,w
  5881  01DD  00BD               	movwf	??___fldiv
  5882  01DE  083D               	movf	??___fldiv,w
  5883  01DF  00CD               	movwf	___fldiv@bexp
  5884  01E0                     l2082:	
  5885  01E0  1C4D               	btfss	___fldiv@bexp,0
  5886  01E1  29E3               	goto	u2671
  5887  01E2  29E4               	goto	u2670
  5888  01E3                     u2671:	
  5889  01E3  29E6               	goto	l2086
  5890  01E4                     u2670:	
  5891  01E4                     l2084:	
  5892  01E4  17BB               	bsf	___fldiv@b+2,7
  5893  01E5  29EA               	goto	l597
  5894  01E6                     l2086:	
  5895  01E6  307F               	movlw	127
  5896  01E7  00BD               	movwf	??___fldiv
  5897  01E8  083D               	movf	??___fldiv,w
  5898  01E9  05BB               	andwf	___fldiv@b+2,f
  5899  01EA                     l597:	
  5900  01EA  084D               	movf	___fldiv@bexp,w
  5901  01EB  00BD               	movwf	??___fldiv
  5902  01EC  1003               	clrc
  5903  01ED  0C3D               	rrf	??___fldiv,w
  5904  01EE  00BE               	movwf	??___fldiv+1
  5905  01EF  083E               	movf	??___fldiv+1,w
  5906  01F0  00BC               	movwf	___fldiv@b+3
  5907  01F1  0846               	movf	___fldiv@sign,w
  5908  01F2  00BD               	movwf	??___fldiv
  5909  01F3  083D               	movf	??___fldiv,w
  5910  01F4  04BC               	iorwf	___fldiv@b+3,f
  5911  01F5  288E               	goto	l1994
  5912  01F6                     l575:	
  5913  01F6  0008               	return
  5914  01F7                     __end_of___fldiv:	
  5915  007E                     btemp	set	126	;btemp
  5916  007E                     wtemp0	set	126


Data Sizes:
    Strings     14
    Constant    0
    Data        0
    BSS         10
    Persistent  0
    Stack       0

Auto Spaces:
    Space          Size  Autos    Used
    COMMON           14     14      14
    BANK0            80     62      72
    BANK1            80      0       0
    BANK3            96      0       0
    BANK2            96      0       0

Pointer List with Targets:

    lcd8_dispChar@value	PTR unsigned char  size(1) Largest target is 4
		 -> STR_4(CODE[2]), STR_3(CODE[4]), STR_2(CODE[4]), STR_1(CODE[4]), 


Critical Paths under _main in COMMON

    _main->___flmul
    _main->___xxtofl
    _lcd8_setCursor->_lcd8_cmd
    _lcd8_init->_lcd8_cmd
    _lcd8_cmd->_delay_1ms
    _lcd8_dispNum->_lcd8_write
    _lcd8_dispChar->_lcd8_write
    _lcd8_write->_delay_1ms
    _i2c_master_init->___lldiv
    ___xxtofl->___wmul
    ___xxtofl->_i2c_masterRead
    ___fltol->___xxtofl
    ___flsub->___xxtofl
    ___flmul->__Umul8_16
    ___fldiv->___flmul

Critical Paths under _main in BANK0

    _main->___fltol
    ___fltol->___fldiv
    ___flsub->___fladd
    ___fldiv->___flmul

Critical Paths under _main in BANK1

    None.

Critical Paths under _main in BANK3

    None.

Critical Paths under _main in BANK2

    None.

Call Graph Tables:

 ---------------------------------------------------------------------------------
 (Depth) Function   	        Calls       Base Space   Used Autos Params    Refs
 ---------------------------------------------------------------------------------
 (0) _main                                                 4     4      0   10128
                                             58 BANK0      4     4      0
                            ___fldiv
                            ___flmul
                            ___flsub
                            ___fltol
                             ___wmul
                           ___xxtofl
                          _delay_1ms
                     _i2c_masterRead
                    _i2c_masterStart
                     _i2c_masterStop
                    _i2c_masterWrite
                    _i2c_master_init
                      _lcd8_dispChar
                       _lcd8_dispNum
                          _lcd8_init
                     _lcd8_setCursor
                              _setup
 ---------------------------------------------------------------------------------
 (1) _setup                                                0     0      0       0
 ---------------------------------------------------------------------------------
 (1) _lcd8_setCursor                                       2     1      1     460
                                              3 COMMON     2     1      1
                           _lcd8_cmd
 ---------------------------------------------------------------------------------
 (1) _lcd8_init                                            2     2      0      68
                                              3 COMMON     2     2      0
                           _lcd8_cmd
 ---------------------------------------------------------------------------------
 (2) _lcd8_cmd                                             1     1      0      68
                                              2 COMMON     1     1      0
                          _delay_1ms
 ---------------------------------------------------------------------------------
 (1) _lcd8_dispNum                                         2     0      2     470
                                              4 COMMON     2     0      2
                         _lcd8_write
 ---------------------------------------------------------------------------------
 (1) _lcd8_dispChar                                        3     3      0     397
                                              4 COMMON     3     3      0
                         _lcd8_write
 ---------------------------------------------------------------------------------
 (2) _lcd8_write                                           2     0      2     220
                                              2 COMMON     2     0      2
                          _delay_1ms
 ---------------------------------------------------------------------------------
 (3) _delay_1ms                                            2     2      0      46
                                              0 COMMON     2     2      0
 ---------------------------------------------------------------------------------
 (1) _i2c_master_init                                      8     4      4     412
                                              0 BANK0      8     4      4
                            ___lldiv
 ---------------------------------------------------------------------------------
 (2) ___lldiv                                             14     6      8     314
                                              0 COMMON    14     6      8
 ---------------------------------------------------------------------------------
 (1) _i2c_masterWrite                                      2     0      2      98
                                              0 COMMON     2     0      2
                     _i2c_masterWait
 ---------------------------------------------------------------------------------
 (1) _i2c_masterStop                                       0     0      0       0
                     _i2c_masterWait
 ---------------------------------------------------------------------------------
 (1) _i2c_masterStart                                      0     0      0       0
                     _i2c_masterWait
 ---------------------------------------------------------------------------------
 (1) _i2c_masterRead                                       6     4      2     143
                                              0 COMMON     6     4      2
                     _i2c_masterWait
 ---------------------------------------------------------------------------------
 (2) _i2c_masterWait                                       0     0      0       0
 ---------------------------------------------------------------------------------
 (1) ___xxtofl                                            14    10      4     550
                                              6 COMMON     8     4      4
                                              0 BANK0      6     6      0
                             ___wmul (ARG)
                     _i2c_masterRead (ARG)
 ---------------------------------------------------------------------------------
 (1) ___wmul                                               6     2      4     396
                                              0 COMMON     6     2      4
 ---------------------------------------------------------------------------------
 (1) ___fltol                                             11     7      4     457
                                             47 BANK0     11     7      4
                            ___fldiv (ARG)
                            ___flsub (ARG)
                             ___wmul (ARG)
                           ___xxtofl (ARG)
 ---------------------------------------------------------------------------------
 (1) ___flsub                                              8     0      8    2485
                                              8 BANK0      8     0      8
                            ___fladd
                             ___wmul (ARG)
                           ___xxtofl (ARG)
 ---------------------------------------------------------------------------------
 (2) ___fladd                                             20    12      8    2136
                                              0 COMMON    12     4      8
                                              0 BANK0      8     8      0
 ---------------------------------------------------------------------------------
 (1) ___flmul                                             26    18      8    2569
                                              9 COMMON     5     5      0
                                              0 BANK0     21    13      8
                          __Umul8_16
 ---------------------------------------------------------------------------------
 (2) __Umul8_16                                            9     7      2     799
                                              0 COMMON     9     7      2
 ---------------------------------------------------------------------------------
 (1) ___fldiv                                             26    18      8    1577
                                             21 BANK0     26    18      8
                            ___flmul (ARG)
 ---------------------------------------------------------------------------------
 Estimated maximum stack depth 3
 ---------------------------------------------------------------------------------

 Call Graph Graphs:

 _main (ROOT)
   ___fldiv
     ___flmul (ARG)
       __Umul8_16
   ___flmul
     __Umul8_16
   ___flsub
     ___fladd
     ___wmul (ARG)
     ___xxtofl (ARG)
       ___wmul (ARG)
       _i2c_masterRead (ARG)
         _i2c_masterWait
   ___fltol
     ___fldiv (ARG)
       ___flmul (ARG)
         __Umul8_16
     ___flsub (ARG)
       ___fladd
       ___wmul (ARG)
       ___xxtofl (ARG)
         ___wmul (ARG)
         _i2c_masterRead (ARG)
           _i2c_masterWait
     ___wmul (ARG)
     ___xxtofl (ARG)
       ___wmul (ARG)
       _i2c_masterRead (ARG)
         _i2c_masterWait
   ___wmul
   ___xxtofl
     ___wmul (ARG)
     _i2c_masterRead (ARG)
       _i2c_masterWait
   _delay_1ms
   _i2c_masterRead
     _i2c_masterWait
   _i2c_masterStart
     _i2c_masterWait
   _i2c_masterStop
     _i2c_masterWait
   _i2c_masterWrite
     _i2c_masterWait
   _i2c_master_init
     ___lldiv
   _lcd8_dispChar
     _lcd8_write
       _delay_1ms
   _lcd8_dispNum
     _lcd8_write
       _delay_1ms
   _lcd8_init
     _lcd8_cmd
       _delay_1ms
   _lcd8_setCursor
     _lcd8_cmd
       _delay_1ms
   _setup

 Address spaces:
Name               Size   Autos  Total    Cost      Usage
BITCOMMON            E      0       0       0        0.0%
EEDATA             100      0       0       0        0.0%
NULL                 0      0       0       0        0.0%
CODE                 0      0       0       0        0.0%
COMMON               E      E       E       1      100.0%
BITSFR0              0      0       0       1        0.0%
SFR0                 0      0       0       1        0.0%
BITSFR1              0      0       0       2        0.0%
SFR1                 0      0       0       2        0.0%
STACK                0      0       0       2        0.0%
ABS                  0      0      56       3        0.0%
BITBANK0            50      0       0       4        0.0%
BITSFR3              0      0       0       4        0.0%
SFR3                 0      0       0       4        0.0%
BANK0               50     3E      48       5       90.0%
BITSFR2              0      0       0       5        0.0%
SFR2                 0      0       0       5        0.0%
BITBANK1            50      0       0       6        0.0%
BANK1               50      0       0       7        0.0%
BITBANK3            60      0       0       8        0.0%
BANK3               60      0       0       9        0.0%
BITBANK2            60      0       0      10        0.0%
BANK2               60      0       0      11        0.0%
DATA                 0      0      56      12        0.0%


Microchip Technology PIC Macro Assembler V2.10 build 88905656 
Symbol Table                                                                                   Thu Feb 27 12:59:26 2020

            ___fldiv@aexp 004E              ___fldiv@bexp 004D                         pc 0002  
            ___fldiv@sign 0046               __CFG_CP$OFF 0000                        l43 0DEF  
                      l62 0C37                        l65 0AC2                        l49 0A86  
                      l74 0B4C                        l83 0ADE                        l68 0AB1  
                      l77 0AA1                        l88 0019                        fsr 0004  
     ___wmul@multiplicand 0072       __Umul8_16@word_mpld 0076                       l111 0BE1  
                     l120 0A69                       l114 0A87                       l117 0A93  
                     l133 0BA2                       l126 0A72                       l135 0BA9  
                     l224 0B0F                       l129 0A7C                       l410 0D19  
                     l226 0B27                       l420 0D19                       l260 0C9D  
                     l521 0303                       l417 0D04                       l530 048E  
                     l523 02D8                       l613 07EF                       l517 025A  
                     l542 03FA                       l551 045C                       l560 048E  
                     l625 07E3                       l538 03D4                       l619 075B  
                     l563 0B02                       l651 0D3E                       l548 041C  
                     l573 0076                       l653 0DD5                       l670 0B61  
                     l575 01F6                       l559 0480                       l672 0B73  
                     l664 0D9F                       l665 0DAB                       l657 0D83  
                     l595 01DA                       l597 01EA                       l589 0168  
            __CFG_CPD$OFF 0000                       fsr0 0004              ___flmul@aexp 002D  
    __end_of_lcd8_dispNum 0AA2              ___flmul@bexp 002E              ___flmul@sign 0028  
            ___flmul@temp 0033              ___flmul@prod 002F              __CFG_LVP$OFF 0000  
            ___fltol@exp1 0059                      l2000 009C                      l2010 00C7  
                    l2020 00EC                      l2012 00CF                      l2004 00A5  
                    l2100 04A1                      l2030 0117                      l2022 00ED  
                    l2014 00D1                      l2006 00B7                      l2110 04BD  
                    l2102 04A6                      l2040 0134                      l2016 00D6  
                    l2024 00F6                      l2032 011B                      l2008 00BF  
                    l2200 0760                      l2120 04D2                      l2112 04C2  
                    l2104 04AB                      l2050 014C                      l2042 0138  
                    l2034 0121                      l2026 0108                      l2018 00E8  
                    l2202 0765                      l2210 0796                      l2130 04EE  
                    l2122 04D7                      l2114 04C8                      l2106 04B3  
                    l2060 016D                      l2052 014D                      l2044 0139  
                    l2036 0129                      l2028 0109                      l2220 07C9  
                    l2212 07A3                      l2204 0773                      l2140 0519  
                    l2132 04F3                      l2124 04DF                      l2116 04CC  
                    l2108 04B5                      l2300 0E44                      l2062 0172  
                    l2070 01A3                      l2054 0151                      l2046 0142  
                    l2038 012B                      l2222 07D7                      l2214 07AE  
                    l2206 0777                      l2150 05B6                      l2142 0536  
                    l2126 04E1                      l2118 04CD                      l2310 0FE1  
                    l2302 0E4D                      l2080 01D9                      l2072 01B0  
                    l2064 0180                      l2056 0165                      l2048 0148  
                    l2224 07DB                      l2216 07BD                      l2208 0790  
                    l2160 0619                      l2152 05BF                      l2144 0552  
                    l2136 04FC                      l2128 04E9                      l1600 0208  
                    l2240 0D46                      l2232 0D1D                      l2312 0FEC  
                    l2304 0E76                      l2082 01E0                      l2074 01BE  
                    l2066 0184                      l2226 07DC                      l2218 07C7  
                    l2170 06B9                      l2162 0632                      l2154 05CF  
                    l2146 057E                      l2138 050C                      l1610 021C  
                    l1602 0209                      l2250 0D68                      l2234 0D22  
                    l2314 0FF1                      l2306 0FD6                      l2084 01E4  
                    l2076 01CD                      l2068 019D                      l2228 07E7  
                    l2180 0727                      l2172 06DF                      l2164 064F  
                    l2156 05EC                      l2148 059A                      l2092 048F  
                    l1700 032C                      l1620 0232                      l1604 020E  
                    l1612 021E                      l2260 0D99                      l2252 0D6C  
                    l2244 0D4F                      l2236 0D26                      l1540 000C  
                    l1532 0004                      l2308 0FDC                      l2086 01E6  
                    l2078 01D1                      l2190 073F                      l2182 072B  
                    l2174 0707                      l2166 067C                      l2158 05FC  
                    l2094 0496                      l1710 0345                      l1702 0330  
                    l1630 0247                      l1622 0238                      l1614 0226  
                    l1606 0213                      l2270 0DCC                      l2262 0DA3  
                    l2254 0D7A                      l2246 0D54                      l2238 0D36  
                    l1550 0ABA                      l1542 0AB3                      l2192 0740  
                    l2184 072C                      l2176 0710                      l2168 068C  
                    l2096 049C                      l1720 03AC                      l1712 0346  
                    l1704 0334                      l1640 0264                      l1632 024F  
                    l1624 023C                      l1616 022B                      l1608 021B  
                    l2272 0DCD                      l2264 0DAD                      l2256 0D8A  
                    l2248 0D61                      l1560 0AA8                      l1552 0ABF  
                    l1544 0AB7                      l2280 0DE0                      l2194 0744  
                    l2186 0735                      l2178 071E                      l2098 04A0  
                    l1730 03E1                      l1722 03B2                      l1714 0351  
                    l1706 033F                      l1650 0278                      l1642 0268  
                    l1634 0250                      l1626 023D                      l1618 0231  
                    l2266 0DC3                      l2258 0D95                      l1570 0C38  
                    l1538 0006                      l1562 0AA9                      l1554 0AA2  
                    l1546 0AB8                      l1810 0BE2                      l1802 0A7D  
                    l2290 0E1E                      l2282 0DFC                      l2196 0758  
                    l2188 073B                      l1740 03FE                      l1724 03B7  
                    l1708 0341                      l1716 0356                      l1660 028C  
                    l1652 027C                      l1644 026C                      l1628 0242  
                    l1636 0252                      l1900 0B16                      l2268 0DC8  
                    l1580 0C65                      l1572 0C48                      l1564 0AAE  
                    l1556 0AA6                      l1548 0AB9                      l1820 0C13  
                    l1812 0BEB                      l1804 0A80                      l2292 0E23  
                    l2284 0E02                      l2276 0DD6                      l1742 0401  
                    l1734 03EA                      l1718 036C                      l1726 03C6  
                    l1750 040E                      l1670 02A0                      l1662 0290  
                    l1654 0280                      l1646 0270                      l1638 0260  
                    l1910 0CAB                      l1902 0B1D                      l1566 0A87  
                    l1582 0C77                      l1574 0C4B                      l1590 0C95  
                    l1558 0AA7                      l1830 0C31                      l1822 0C19  
                    l1814 0BF1                      l1806 0A82                      l2294 0E2F  
                    l2286 0E07                      l2278 0DDB                      l1760 0421  
                    l1752 040F                      l1744 0403                      l1736 03F5  
                    l1728 03DC                      l1680 02E7                      l1664 0294  
                    l1656 0284                      l1648 0274                      l1672 02A4  
                    l1920 0CD2                      l1904 0B23                      l1568 0A8D  
                    l1584 0C85                      l1576 0C58                      l1840 0BDF  
                    l1832 0BAA                      l1824 0C1F                      l1816 0BFF  
                    l1808 0A85                      l2296 0E34                      l2288 0E13  
                    l1770 0461                      l1762 0426                      l1754 0413  
                    l1746 0408                      l1738 03F9                      l1682 02E9  
                    l1690 02FD                      l1674 02A5                      l1666 0298  
                    l1658 0288                      l1594 01F7                      l1930 0CE0  
                    l1922 0CD4                      l1914 0CB4                      l1586 0C86  
                    l1578 0C5C                      l1842 0BE0                      l1834 0BAE  
                    l1826 0C25                      l1818 0C06                      l1850 0AD7  
                    l2298 0E3F                      l1780 0478                      l1772 0466  
                    l1764 0434                      l1756 0419                      l1748 040A  
                    l1692 0307                      l1684 02ED                      l1676 02BC  
                    l1668 029C                      l1596 01FE                      l1940 0D09  
                    l1924 0CD8                      l1932 0CF2                      l1916 0CC9  
                    l1908 0C9E                      l1860 0A61                      l1588 0C8F  
                    l1836 0BB1                      l1852 0B29                      l1828 0C2B  
                    l1844 0AC4                      l1950 001A                      l1790 0B50  
                    l1782 047A                      l1774 046E                      l1766 0438  
                    l1694 030C                      l1686 02EE                      l1678 02DC  
                    l1598 0204                      l1942 0D0E                      l1918 0CCA  
                    l1870 0B79                      l1862 0A66                      l1838 0BDE  
                    l1854 0B2A                      l1846 0AC9                      l1960 0031  
                    l1952 0021                      l1792 0B57                      l1784 0489  
                    l1776 0473                      l1768 0458                      l1688 02F9  
                    l1944 0ADF                      l1880 0B99                      l1872 0B81  
                    l1864 0A73                      l1856 0B3C                      l1848 0AD1  
                    l1970 0049                      l1962 0036                      l1954 0027  
                    l1794 0B5B                      l1786 048D                      l1778 0474  
                    l1698 0315                      l1946 0AE3                      l1938 0CF9  
                    l1882 0B9F                      l1874 0B8A                      l1890 0A6F  
                    l1866 0A78                      l1858 0B40                      l1980 005E  
                    l1972 004E                      l1964 003E                      l1956 002B  
                    l1796 0B6A                      l1788 0B4E                      l1884 0BA5  
                    l1876 0B8F                      l1868 0B74                      l1892 0A94  
                    l1990 007E                      l1982 0063                      l1974 0054  
                    l1966 003F                      l1958 002C                      l1798 0B6F  
                    l1894 0B03                      l1878 0B95                      l1992 008A  
                    l1984 006B                      l1976 0058                      l1968 0041  
                    l1896 0B05                      l1888 0A6A                      l1994 008E  
                    l1986 006C                      l1978 0059                      l1898 0B09  
                    l1988 006E                      l1998 0097                      STR_1 0806  
                    STR_2 080A                      STR_3 080E                      STR_4 0812  
                    u2000 03F9                      u2001 03F8                      u2010 03FE  
                    u2011 03FD                      u2100 0458                      u2020 0408  
                    u2101 0457                      u2021 0407                      u2110 0461  
                    u2030 040E                      u2111 0460                      u2031 040D  
                    u3000 0777                      u2120 0466                      u2040 0413  
                    u2200 0AC9                      u3001 0776                      u2121 0465  
                    u2041 0412                      u2201 0AC8                      u3010 0786  
                    u2130 0473                      u2050 0419                      u2210 0AD7  
                    u2131 0472                      u2051 0418                      u2211 0AD6  
                    u3020 07A3                      u2140 0478                      u2060 0420  
                    u2300 0CC2                      u2220 0B4C                      u3021 07A2  
                    u2141 0477                      u2061 041F                      u2221 0B4B  
                    u3030 07BD                      u2150 048D                      u2070 0426  
                    u2310 0CD8                      u3110 0D89                      u2230 0B95  
                    u3031 07BC                      u3015 0781                      u2151 048C  
                    u2071 0425                      u2311 0CD7                      u3111 0D88  
                    u2231 0B94                      u2400 0031                      u2160 0B5B  
                    u3040 07DB                      u2080 0438                      u2320 0CDF  
                    u2240 0B9F                      u1600 0019                      u2401 0030  
                    u2161 0B5A                      u3041 07DA                      u3025 079F  
                    u2081 0437                      u2321 0CDE                      u2305 0CBD  
                    u3105 0D7B                      u2241 0B9E                      u1601 0018  
                    u2410 0036                      u2090 0449                      u2250 0B09  
                    u3130 0D99                      u3050 0D22                      u1610 0A8D  
                    u2411 0035                      u3035 07B9                      u2251 0B08  
                    u3131 0D98                      u3051 0D21                      u1611 0A8C  
                    u2500 00EC                      u2420 0058                      u2180 0B6F  
                    u1700 0208                      u2340 0CF1                      u3140 0D9F  
                    u3060 0D26                      u1620 0A93                      u2501 00EB  
                    u2421 0057                      u2181 0B6E                      u1701 0207  
                    u2341 0CF0                      u3141 0D9E                      u3125 0D8E  
                    u3061 0D25                      u1621 0A92                      u1605 0015  
                    u2430 005E                      u1710 020E                      u2350 0CF8  
                    u3150 0DA3                      u3070 0D46                      u1630 0C48  
                    u2190 0BC1                      u2431 005D                      u2175 0B62  
                    u2095 0444                      u1711 020D                      u2351 0CF7  
                    u2335 0CE1                      u3151 0DA2                      u3071 0D45  
                    u1631 0C47                      u3207 0BF5                      u2600 0165  
                    u2520 0108                      u2440 0063                      u1800 02C5  
                    u1720 0213                      u2280 0B23                      u3160 0DB8  
                    u2601 0164                      u2521 0107                      u2441 0062  
                    u1801 02C3                      u1721 0212                      u2281 0B22  
                    u2265 0B10                      u3217 0C01                      u2610 016C  
                    u2530 0121                      u2450 007E                      u1810 02C6  
                    u1730 0231                      u2370 0D09                      u2290 0CAB  
                    u3170 0DC8                      u3090 0D67                      u1650 0C5C  
                    u2611 016B                      u2531 0120                      u2515 00EF  
                    u2451 007D                      u1731 0230                      u2371 0D08  
                    u2291 0CAA                      u2275 0B17                      u3171 0DC7  
                    u3091 0D66                      u1651 0C5B                      u2195 0BBC  
                    u3227 0C0E                      u2620 0172                      u2540 0129  
                    u2460 009C                      u2700 04AB                      u1900 0334  
                    u1820 02DC                      u1740 023C                      u2380 0D0E  
                    u3180 0DCC                      u2621 0171                      u2541 0128  
                    u2525 0104                      u2461 009B                      u2701 04AA  
                    u1901 0333                      u1821 02DB                      u1741 023B  
                    u2381 0D0D                      u2365 0CFB                      u3181 0DCB  
                    u3165 0DB3                      u3085 0D59                      u1645 0C4D  
                    u2630 0184                      u2470 00D6                      u2390 002B  
                    u2710 04CC                      u1910 0345                      u1830 02ED  
                    u1750 0242                      u1670 0C77                      u2631 0183  
                    u2471 00D5                      u2391 002A                      u2711 04CB  
                    u1911 0344                      u1831 02EC                      u1751 0241  
                    u1671 0C76                      u2640 0193                      u2560 0138  
                    u2720 04D2                      u1760 0247                      u2561 0137  
                    u2721 04D1                      u1761 0246                      u1665 0C5E  
                    u2650 01B0                      u2730 04D7                      u1930 036C  
                    u1850 0303                      u1770 0260                      u1690 0C95  
                    u2651 01AF                      u2555 012D                      u2811 05DE  
                    u2731 04D6                      u1931 036B                      u1851 0302  
                    u1771 025F                      u1691 0C94                      u1675 0C73  
                    u2660 01CD                      u2580 014C                      u2812 05E5  
                    u2740 04EE                      u1860 0307                      u1780 0264  
                    u2661 01CC                      u2645 018E                      u2581 014B  
                    u2485 00D8                      u2901 06F9                      u2821 060B  
                    u2813 05EC                      u2805 05B8                      u2741 04ED  
                    u1941 0385                      u1933 0368                      u1925 034A  
                    u1861 0306                      u1845 02F2                      u1781 0263  
                    u1685 0C87                      u3197 0BE6                      u2670 01E4  
                    u2590 0151                      u2902 0700                      u2822 0612  
                    u2750 04F3                      u1950 0399                      u1942 0386  
                    u1870 030C                      u1790 02BC                      u2671 01E3  
                    u2655 01AC                      u2591 0150                      u2575 013B  
                    u2495 00E1                      u2903 0707                      u2823 0619  
                    u2751 04F2                      u1951 039A                      u1943 038B  
                    u1871 030B                      u1791 02BB                      u2680 04A0  
                    u1960 03B7                      u1952 039F                      u1944 038C  
                    u2665 01C9                      u2841 0641                      u2761 0544  
                    u2681 049F                      u1961 03B6                      u1953 03A0  
                    u1945 0391                      u1881 031E                      u2930 072B  
                    u2842 0648                      u2762 054B                      u2690 04A6  
                    u1970 03DC                      u1946 0392                      u1890 0330  
                    u1882 0325                      u2931 072A                      u2915 0709  
                    u2851 066E                      u2843 064F                      u2835 061B  
                    u2771 0560                      u2763 0552                      u2691 04A5  
                    u1971 03DB                      u1891 032F                      u1883 032C  
                    u1795 02B8                      u2852 0675                      u2772 0567  
                    u1980 03E1                      u2925 0720                      u2861 069B  
                    u2853 067C                      u2781 058C                      u2773 056E  
                    u1981 03E0                      u2950 073F                      u2870 06C5  
                    u2862 06A2                      u2782 0593                      u2951 073E  
                    u2863 06A9                      u2791 05A8                      u2783 059A  
                    u2960 0744                      u2792 05AF                      u2961 0743  
                    u2945 072E                      u2881 06D1                      u2793 05B6  
                    u2970 0758                      u2890 06ED                      u2882 06D8  
                    u2971 0757                      u2883 06DF                      u2875 06C0  
                    u1995 03EE                      u2980 075F                      u2981 075E  
                    u2990 0765                      u2991 0764                      u2895 06E8  
            __CFG_WRT$OFF 0000                      _main 0DD6                      btemp 007E  
                    start 0000             __CFG_IESO$OFF 0000           ___fldiv@new_exp 0047  
   __end_of_lcd8_dispChar 0B4D             ___fltol@sign1 0058           __end_of___fladd 048F  
                   ?_main 0070           __end_of___fldiv 01F7             __CFG_WDTE$OFF 0000  
         __end_of___flmul 07F0           __end_of___flsub 0B03           __end_of___fltol 0D1A  
                   _ANSEL 0188           __end_of___lldiv 0C9E                     _PORTA 0005  
                   _TRISA 0085                     _TRISE 0089            __CFG_FCMEN$OFF 0000  
          _i2c_masterRead 0B74            _i2c_masterWait 0A87            _i2c_masterStop 0A6A  
                   _setup 0A7D            __CFG_BOREN$OFF 0000                     pclath 000A  
          _lcd8_setCursor 0AC3                     status 0003                     wtemp0 007E  
          __CFG_MCLRE$OFF 0000           __initialization 07F0              __end_of_main 1000  
                  ??_main 005A    __end_of_i2c_masterRead 0BAA    __end_of_i2c_masterWait 0A94  
  __end_of_i2c_masterStop 0A73    __end_of_lcd8_setCursor 0ADF                    ?_setup 0070  
                  _ANSELH 0189                    _SSPADD 0093                    _SSPCON 0014  
                  _SSPBUF 0013          __end_of___xxtofl 0DD6          __end_of_lcd8_cmd 0AC3  
          __CFG_PWRTE$OFF 0000           _i2c_masterStart 0A61                 ??___fladd 0020  
                  ___wmul 0B03           _i2c_masterWrite 0A73                 ??___fldiv 003D  
               ??___flmul 0079           _i2c_master_init 0BAA                 ??___flsub 007E  
               ??___fltol 0053                 ??___lldiv 0078     __size_of_lcd8_dispNum 000E  
         ?_i2c_masterRead 0070           ?_i2c_masterWait 0070        __size_of__Umul8_16 0027  
         ?_i2c_masterStop 0070           ?_lcd8_setCursor 0073              ___xxtofl@arg 0022  
            ___xxtofl@exp 0021              ___xxtofl@val 0076   __end_of__initialization 07FC  
              ___fltol@f1 004F              _lcd8_dispNum 0A94            __pcstackCOMMON 0070  
      __size_of_lcd8_init 0056             __end_of_setup 0A87        __size_of_delay_1ms 0016  
                 ??_setup 0070                __pbssBANK0 005E   __end_of_i2c_masterStart 0A6A  
              _lcd8_write 0AA2   __end_of_i2c_masterWrite 0A7D   __end_of_i2c_master_init 0BE2  
       __end_of__Umul8_16 0B74        lcd8_setCursor@fila 0074                __pmaintext 0DD6  
                 ?___wmul 0070                 ?___xxtofl 0076                 ?_lcd8_cmd 0070  
                 _SSPCON2 0091                   _SSPSTAT 0094                __stringtab 0800  
       __end_of_lcd8_init 0C38         __end_of_delay_1ms 001A                   ___fladd 01F7  
                 ___fldiv 001A                   ___flmul 048F                   ___flsub 0ADF  
                 ___fltol 0C9E                   ___lldiv 0C38           __size_of___wmul 0025  
                 _decenas 0064                   __ptext1 0A7D                   __ptext2 0AC3  
                 __ptext3 0BE2                   __ptext4 0AB2                   __ptext5 0A94  
                 __ptext6 0B28                   __ptext7 0AA2                   __ptext8 0004  
                 __ptext9 0BAA                ??___xxtofl 007A                delay_1ms@i 0070  
              ??_lcd8_cmd 0072             lcd8_write@dat 0072    __size_of_lcd8_dispChar 0025  
    end_of_initialization 07FC               ?_lcd8_write 0072          ?_i2c_masterStart 0070  
        ?_i2c_masterWrite 0070          ?_i2c_master_init 0020           ___lldiv@divisor 0070  
         ___lldiv@counter 007D          ??_i2c_masterRead 0072          ??_i2c_masterWait 0070  
        ??_i2c_masterStop 0070           i2c_masterRead@a 0070                 _PORTEbits 0009  
             ___fladd@grs 007B          ??_lcd8_setCursor 0074             ___xxtofl@sign 0020  
               _TRISCbits 0087               ___fldiv@grs 0049               ___fldiv@rem 0042  
             ___flmul@grs 0029             _lcd8_dispChar 0B28            __end_of___wmul 0B28  
     __size_of_lcd8_write 0010       start_initialization 07F0  __CFG_FOSC$INTRC_NOCLKOUT 0000  
          ?_lcd8_dispChar 0070                  ??___wmul 0074                 __Umul8_16 0B4D  
               ___fladd@a 0074                 ___fladd@b 0070                 ___fldiv@a 0035  
               ___fldiv@b 0039                 ___flmul@a 0024                 ___flmul@b 0020  
               ___flsub@a 0028                 ___flsub@b 002C                 ___latbits 0002  
           __pcstackBANK0 0020         __size_of___xxtofl 00BC         __size_of_lcd8_cmd 0011  
               _lcd8_init 0BE2     lcd8_setCursor@columna 0073                 _delay_1ms 0004  
                ?___fladd 0070                  ?___fldiv 0035                  ?___flmul 0020  
                ?___flsub 0028                  ?___fltol 004F                  ?___lldiv 0070  
              ?__Umul8_16 0070                 __pstrings 0800            __size_of_setup 000A  
          ___wmul@product 0074              ??_lcd8_write 0074           ??_lcd8_dispChar 0074  
                _PIE1bits 008C                ?_lcd8_init 0070                ?_delay_1ms 0070  
                _PIR1bits 000C                 _temp_pot1 005E               __stringbase 0805  
       ___wmul@multiplier 0070        __end_of_lcd8_write 0AB2        lcd8_dispChar@value 0076  
           ?_lcd8_dispNum 0074               ??__Umul8_16 0072  __size_of_i2c_masterStart 0009  
        __size_of___fladd 0298          __size_of___fldiv 01DD  __size_of_i2c_masterWrite 000A  
        __size_of___flmul 0361          __size_of___flsub 0024          __size_of___fltol 007C  
__size_of_i2c_master_init 0038          __size_of___lldiv 0066        __end_of__stringtab 0806  
             lcd8_cmd@cmd 0072                  ___xxtofl 0D1A                  _lcd8_cmd 0AB2  
                _centenas 0066                  __ptext10 0C38                  __ptext11 0A73  
                __ptext20 01F7                  __ptext12 0A6A                  __ptext21 048F  
                __ptext13 0A61                  __ptext22 0B4D                  __ptext14 0B74  
                __ptext23 001A                  __ptext15 0A87                  __ptext16 0D1A  
                __ptext17 0B03                  __ptext18 0C9E                  __ptext19 0ADF  
       __CFG_BOR4V$BOR40V 0000             __size_of_main 022A               ??_lcd8_init 0073  
             ??_delay_1ms 0070       lcd8_dispNum@val_num 0074            ??_lcd8_dispNum 0076  
      i2c_masterRead@temp 0074                  _unidades 0062       i2c_masterWrite@data 0070  
              _INTCONbits 000B   __size_of_i2c_masterRead 0036   __size_of_i2c_masterWait 000D  
 __size_of_i2c_masterStop 0009   __size_of_lcd8_setCursor 001C          ___lldiv@dividend 0074  
               stringcode 0800    __Umul8_16@multiplicand 0070          ___lldiv@quotient 0079  
       ??_i2c_masterStart 0070         ??_i2c_masterWrite 0072         ??_i2c_master_init 0024  
                stringdir 0800                  stringtab 0800               _SSPCON2bits 0091  
           ___fladd@signs 0078              ___fladd@aexp 0079              ___fladd@bexp 007A  
    __Umul8_16@multiplier 0078          i2c_master_init@c 0020         __Umul8_16@product 0074  
